---
triple:          'arm64-apple-darwin'
binary-path:     GHJ
relocations:
  - { offsetInCU: 0x2F90, offset: 0x2F90, size: 0x8, addend: 0x0, symName: __ZNSt3__124__put_character_sequenceB8ue170006IcNS_11char_traitsIcEEEERNS_13basic_ostreamIT_T0_EES7_PKS4_m, symObjAddr: 0x1D5C, symBinAddr: 0x100002624, symSize: 0x1EC }
  - { offsetInCU: 0x4BC6, offset: 0x4BC6, size: 0x8, addend: 0x0, symName: __ZNSt3__1lsB8ue170006INS_11char_traitsIcEEEERNS_13basic_ostreamIcT_EES6_PKc, symObjAddr: 0x420, symBinAddr: 0x100000CE8, symSize: 0x48 }
  - { offsetInCU: 0x4C0C, offset: 0x4C0C, size: 0x8, addend: 0x0, symName: __ZNSt3__14endlB8ue170006IcNS_11char_traitsIcEEEERNS_13basic_ostreamIT_T0_EES7_, symObjAddr: 0x494, symBinAddr: 0x100000D5C, symSize: 0x58 }
  - { offsetInCU: 0x4C4C, offset: 0x4C4C, size: 0x8, addend: 0x0, symName: __ZNSt3__1eqB8ue170006INS_9allocatorIcEEEEbRKNS_12basic_stringIcNS_11char_traitsIcEET_EES9_, symObjAddr: 0x4EC, symBinAddr: 0x100000DB4, symSize: 0x148 }
  - { offsetInCU: 0x4CBF, offset: 0x4CBF, size: 0x8, addend: 0x0, symName: __ZNSt3__1lsB8ue170006IcNS_11char_traitsIcEENS_9allocatorIcEEEERNS_13basic_ostreamIT_T0_EES9_RKNS_12basic_stringIS6_S7_T1_EE, symObjAddr: 0x698, symBinAddr: 0x100000F60, symSize: 0x4C }
  - { offsetInCU: 0x4D17, offset: 0x4D17, size: 0x8, addend: 0x0, symName: __ZNSt3__1neB8ue170006IcNS_11char_traitsIcEENS_9allocatorIcEEEEbRKNS_12basic_stringIT_T0_T1_EESB_, symObjAddr: 0x764, symBinAddr: 0x10000102C, symSize: 0x34 }
  - { offsetInCU: 0x4D6F, offset: 0x4D6F, size: 0x8, addend: 0x0, symName: __ZNSt3__1ltB8ue170006IcNS_11char_traitsIcEENS_9allocatorIcEEEEbRKNS_12basic_stringIT_T0_T1_EESB_, symObjAddr: 0x798, symBinAddr: 0x100001060, symSize: 0x38 }
  - { offsetInCU: 0x4DC7, offset: 0x4DC7, size: 0x8, addend: 0x0, symName: __ZNSt3__119__libcpp_deallocateB8ue170006EPvmm, symObjAddr: 0xD10, symBinAddr: 0x1000015D8, symSize: 0x30 }
  - { offsetInCU: 0x4E0F, offset: 0x4E0F, size: 0x8, addend: 0x0, symName: __ZNSt3__127__do_deallocate_handle_sizeB8ue170006IJEEEvPvmDpT_, symObjAddr: 0xD40, symBinAddr: 0x100001608, symSize: 0x28 }
  - { offsetInCU: 0x4E4D, offset: 0x4E4D, size: 0x8, addend: 0x0, symName: __ZNSt3__124__libcpp_operator_deleteB8ue170006IJPvEEEvDpT_, symObjAddr: 0xD68, symBinAddr: 0x100001630, symSize: 0x24 }
  - { offsetInCU: 0x4EB5, offset: 0x4EB5, size: 0x8, addend: 0x0, symName: __ZNSt3__116__do_string_hashB8ue170006IPKcEEmT_S3_, symObjAddr: 0xE10, symBinAddr: 0x1000016D8, symSize: 0x3C }
  - { offsetInCU: 0x4EFB, offset: 0x4EFB, size: 0x8, addend: 0x0, symName: __ZNSt3__110__loadwordB8ue170006ImEET_PKv, symObjAddr: 0x1880, symBinAddr: 0x100002148, symSize: 0x20 }
  - { offsetInCU: 0x4F3E, offset: 0x4F3E, size: 0x8, addend: 0x0, symName: __ZNSt3__14swapB8ue170006ImEENS_9enable_ifIXaasr21is_move_constructibleIT_EE5valuesr18is_move_assignableIS2_EE5valueEvE4typeERS2_S5_, symObjAddr: 0x1A3C, symBinAddr: 0x100002304, symSize: 0x3C }
  - { offsetInCU: 0x4F8F, offset: 0x4F8F, size: 0x8, addend: 0x0, symName: __ZNSt3__110__loadwordB8ue170006IjEET_PKv, symObjAddr: 0x1ACC, symBinAddr: 0x100002394, symSize: 0x20 }
  - { offsetInCU: 0x4FD2, offset: 0x4FD2, size: 0x8, addend: 0x0, symName: __ZNSt3__112__to_addressB8ue170006IKcEEPT_S3_, symObjAddr: 0x1C34, symBinAddr: 0x1000024FC, symSize: 0x14 }
  - { offsetInCU: 0x503A, offset: 0x503A, size: 0x8, addend: 0x0, symName: __ZNSt3__116__pad_and_outputB8ue170006IcNS_11char_traitsIcEEEENS_19ostreambuf_iteratorIT_T0_EES6_PKS4_S8_S8_RNS_8ios_baseES4_, symObjAddr: 0x1F98, symBinAddr: 0x100002860, symSize: 0x240 }
  - { offsetInCU: 0x5109, offset: 0x5109, size: 0x8, addend: 0x0, symName: __ZNSt3__19use_facetB8ue170006INS_5ctypeIcEEEERKT_RKNS_6localeE, symObjAddr: 0x2524, symBinAddr: 0x100002DEC, symSize: 0x2C }
  - { offsetInCU: 0x55D6, offset: 0x55D6, size: 0x8, addend: 0x0, symName: __ZNSt3__118__constexpr_strlenB8ue170006EPKc, symObjAddr: 0x25BC, symBinAddr: 0x100002E84, symSize: 0x24 }
  - { offsetInCU: 0x5602, offset: 0x5602, size: 0x8, addend: 0x0, symName: __ZNSt3__13minB8ue170006ImEERKT_S3_S3_, symObjAddr: 0x280C, symBinAddr: 0x1000030D4, symSize: 0x2C }
  - { offsetInCU: 0x5645, offset: 0x5645, size: 0x8, addend: 0x0, symName: __ZNSt3__13minB8ue170006ImNS_6__lessIvvEEEERKT_S5_S5_T0_, symObjAddr: 0x2838, symBinAddr: 0x100003100, symSize: 0x54 }
  - { offsetInCU: 0x7E89, offset: 0x7E89, size: 0x8, addend: 0x0, symName: __ZN6RecordC2ENSt3__112basic_stringIcNS0_11char_traitsIcEENS0_9allocatorIcEEEES6_, symObjAddr: 0x0, symBinAddr: 0x1000008C8, symSize: 0x64 }
  - { offsetInCU: 0x7ED1, offset: 0x7ED1, size: 0x8, addend: 0x0, symName: __ZNSt3__112basic_stringIcNS_11char_traitsIcEENS_9allocatorIcEEEC1B8ue170006Ev, symObjAddr: 0x64, symBinAddr: 0x10000092C, symSize: 0x2C }
  - { offsetInCU: 0x7EFA, offset: 0x7EFA, size: 0x8, addend: 0x0, symName: __ZNSt3__112basic_stringIcNS_11char_traitsIcEENS_9allocatorIcEEEaSB8ue170006EOS5_, symObjAddr: 0x90, symBinAddr: 0x100000958, symSize: 0x34 }
  - { offsetInCU: 0x7F2C, offset: 0x7F2C, size: 0x8, addend: 0x0, symName: __ZN6RecordC1ENSt3__112basic_stringIcNS0_11char_traitsIcEENS0_9allocatorIcEEEES6_, symObjAddr: 0xC4, symBinAddr: 0x10000098C, symSize: 0x3C }
  - { offsetInCU: 0x7F74, offset: 0x7F74, size: 0x8, addend: 0x0, symName: __ZN6RecordC2ERKS_, symObjAddr: 0x100, symBinAddr: 0x1000009C8, symSize: 0x94 }
  - { offsetInCU: 0x7FAC, offset: 0x7FAC, size: 0x8, addend: 0x0, symName: __ZN6RecordC1ERKS_, symObjAddr: 0x194, symBinAddr: 0x100000A5C, symSize: 0x34 }
  - { offsetInCU: 0x7FE5, offset: 0x7FE5, size: 0x8, addend: 0x0, symName: __ZN6Record14partition_hashEv, symObjAddr: 0x1C8, symBinAddr: 0x100000A90, symSize: 0x40 }
  - { offsetInCU: 0x8028, offset: 0x8028, size: 0x8, addend: 0x0, symName: __ZNKSt3__113__string_hashIcNS_9allocatorIcEEEclB8ue170006ERKNS_12basic_stringIcNS_11char_traitsIcEES2_EE, symObjAddr: 0x208, symBinAddr: 0x100000AD0, symSize: 0x64 }
  - { offsetInCU: 0x805B, offset: 0x805B, size: 0x8, addend: 0x0, symName: __ZN6Record10probe_hashEv, symObjAddr: 0x26C, symBinAddr: 0x100000B34, symSize: 0x68 }
  - { offsetInCU: 0x8094, offset: 0x8094, size: 0x8, addend: 0x0, symName: __ZNK6RecordeqERKS_, symObjAddr: 0x2D4, symBinAddr: 0x100000B9C, symSize: 0x14C }
  - { offsetInCU: 0x80D7, offset: 0x80D7, size: 0x8, addend: 0x0, symName: __ZNSt3__113basic_ostreamIcNS_11char_traitsIcEEElsB8ue170006EPFRS3_S4_E, symObjAddr: 0x468, symBinAddr: 0x100000D30, symSize: 0x2C }
  - { offsetInCU: 0x8109, offset: 0x8109, size: 0x8, addend: 0x0, symName: __ZN6Record5printEv, symObjAddr: 0x634, symBinAddr: 0x100000EFC, symSize: 0x64 }
  - { offsetInCU: 0x8130, offset: 0x8130, size: 0x8, addend: 0x0, symName: __ZNK6RecordltERKS_, symObjAddr: 0x6E4, symBinAddr: 0x100000FAC, symSize: 0x80 }
  - { offsetInCU: 0x8165, offset: 0x8165, size: 0x8, addend: 0x0, symName: __ZN6Record5equalERKS_, symObjAddr: 0x7D0, symBinAddr: 0x100001098, symSize: 0x64 }
  - { offsetInCU: 0x8199, offset: 0x8199, size: 0x8, addend: 0x0, symName: __ZNSt3__112basic_stringIcNS_11char_traitsIcEENS_9allocatorIcEEEC2B8ue170006Ev, symObjAddr: 0x834, symBinAddr: 0x1000010FC, symSize: 0x48 }
  - { offsetInCU: 0x81C6, offset: 0x81C6, size: 0x8, addend: 0x0, symName: __ZNSt3__117__compressed_pairINS_12basic_stringIcNS_11char_traitsIcEENS_9allocatorIcEEE5__repES5_EC1B8ue170006INS_18__default_init_tagESA_EEOT_OT0_, symObjAddr: 0x87C, symBinAddr: 0x100001144, symSize: 0x3C }
  - { offsetInCU: 0x821D, offset: 0x821D, size: 0x8, addend: 0x0, symName: __ZNSt3__112basic_stringIcNS_11char_traitsIcEENS_9allocatorIcEEE14__default_initB8ue170006Ev, symObjAddr: 0x8C4, symBinAddr: 0x10000118C, symSize: 0x40 }
  - { offsetInCU: 0x8240, offset: 0x8240, size: 0x8, addend: 0x0, symName: __ZNSt3__117__compressed_pairINS_12basic_stringIcNS_11char_traitsIcEENS_9allocatorIcEEE5__repES5_EC2B8ue170006INS_18__default_init_tagESA_EEOT_OT0_, symObjAddr: 0x904, symBinAddr: 0x1000011CC, symSize: 0x3C }
  - { offsetInCU: 0x8297, offset: 0x8297, size: 0x8, addend: 0x0, symName: __ZNSt3__122__compressed_pair_elemINS_12basic_stringIcNS_11char_traitsIcEENS_9allocatorIcEEE5__repELi0ELb0EEC2B8ue170006ENS_18__default_init_tagE, symObjAddr: 0x940, symBinAddr: 0x100001208, symSize: 0x14 }
  - { offsetInCU: 0x82CA, offset: 0x82CA, size: 0x8, addend: 0x0, symName: __ZNSt3__122__compressed_pair_elemINS_9allocatorIcEELi1ELb1EEC2B8ue170006ENS_18__default_init_tagE, symObjAddr: 0x954, symBinAddr: 0x10000121C, symSize: 0x2C }
  - { offsetInCU: 0x82FD, offset: 0x82FD, size: 0x8, addend: 0x0, symName: __ZNSt3__19allocatorIcEC2B8ue170006Ev, symObjAddr: 0x980, symBinAddr: 0x100001248, symSize: 0x2C }
  - { offsetInCU: 0x8326, offset: 0x8326, size: 0x8, addend: 0x0, symName: __ZNSt3__116__non_trivial_ifILb1ENS_9allocatorIcEEEC2B8ue170006Ev, symObjAddr: 0x9AC, symBinAddr: 0x100001274, symSize: 0x14 }
  - { offsetInCU: 0x834F, offset: 0x834F, size: 0x8, addend: 0x0, symName: __ZNSt3__117__compressed_pairINS_12basic_stringIcNS_11char_traitsIcEENS_9allocatorIcEEE5__repES5_E5firstB8ue170006Ev, symObjAddr: 0x9C0, symBinAddr: 0x100001288, symSize: 0x24 }
  - { offsetInCU: 0x8373, offset: 0x8373, size: 0x8, addend: 0x0, symName: __ZNSt3__122__compressed_pair_elemINS_12basic_stringIcNS_11char_traitsIcEENS_9allocatorIcEEE5__repELi0ELb0EE5__getB8ue170006Ev, symObjAddr: 0x9E4, symBinAddr: 0x1000012AC, symSize: 0x14 }
  - { offsetInCU: 0x8398, offset: 0x8398, size: 0x8, addend: 0x0, symName: __ZNSt3__112basic_stringIcNS_11char_traitsIcEENS_9allocatorIcEEE13__move_assignB8ue170006ERS5_NS_17integral_constantIbLb1EEE, symObjAddr: 0x9F8, symBinAddr: 0x1000012C0, symSize: 0xC8 }
  - { offsetInCU: 0x83DA, offset: 0x83DA, size: 0x8, addend: 0x0, symName: __ZNKSt3__112basic_stringIcNS_11char_traitsIcEENS_9allocatorIcEEE9__is_longB8ue170006Ev, symObjAddr: 0xAC0, symBinAddr: 0x100001388, symSize: 0x38 }
  - { offsetInCU: 0x83FE, offset: 0x83FE, size: 0x8, addend: 0x0, symName: __ZNSt3__116allocator_traitsINS_9allocatorIcEEE10deallocateB8ue170006ERS2_Pcm, symObjAddr: 0xAF8, symBinAddr: 0x1000013C0, symSize: 0x34 }
  - { offsetInCU: 0x8440, offset: 0x8440, size: 0x8, addend: 0x0, symName: __ZNSt3__112basic_stringIcNS_11char_traitsIcEENS_9allocatorIcEEE7__allocB8ue170006Ev, symObjAddr: 0xB2C, symBinAddr: 0x1000013F4, symSize: 0x24 }
  - { offsetInCU: 0x8464, offset: 0x8464, size: 0x8, addend: 0x0, symName: __ZNSt3__112basic_stringIcNS_11char_traitsIcEENS_9allocatorIcEEE18__get_long_pointerB8ue170006Ev, symObjAddr: 0xB50, symBinAddr: 0x100001418, symSize: 0x28 }
  - { offsetInCU: 0x8488, offset: 0x8488, size: 0x8, addend: 0x0, symName: __ZNKSt3__112basic_stringIcNS_11char_traitsIcEENS_9allocatorIcEEE14__get_long_capB8ue170006Ev, symObjAddr: 0xB78, symBinAddr: 0x100001440, symSize: 0x30 }
  - { offsetInCU: 0x84AC, offset: 0x84AC, size: 0x8, addend: 0x0, symName: __ZNSt3__112basic_stringIcNS_11char_traitsIcEENS_9allocatorIcEEE19__move_assign_allocB8ue170006ERS5_, symObjAddr: 0xBA8, symBinAddr: 0x100001470, symSize: 0x2C }
  - { offsetInCU: 0x84DF, offset: 0x84DF, size: 0x8, addend: 0x0, symName: __ZNSt3__112basic_stringIcNS_11char_traitsIcEENS_9allocatorIcEEE16__set_short_sizeB8ue170006Em, symObjAddr: 0xBD4, symBinAddr: 0x10000149C, symSize: 0x78 }
  - { offsetInCU: 0x8512, offset: 0x8512, size: 0x8, addend: 0x0, symName: __ZNSt3__111char_traitsIcE6assignB8ue170006ERcRKc, symObjAddr: 0xC4C, symBinAddr: 0x100001514, symSize: 0x24 }
  - { offsetInCU: 0x8543, offset: 0x8543, size: 0x8, addend: 0x0, symName: __ZNSt3__112basic_stringIcNS_11char_traitsIcEENS_9allocatorIcEEE19__get_short_pointerB8ue170006Ev, symObjAddr: 0xC70, symBinAddr: 0x100001538, symSize: 0x28 }
  - { offsetInCU: 0x8567, offset: 0x8567, size: 0x8, addend: 0x0, symName: __ZNKSt3__117__compressed_pairINS_12basic_stringIcNS_11char_traitsIcEENS_9allocatorIcEEE5__repES5_E5firstB8ue170006Ev, symObjAddr: 0xC98, symBinAddr: 0x100001560, symSize: 0x24 }
  - { offsetInCU: 0x858B, offset: 0x858B, size: 0x8, addend: 0x0, symName: __ZNKSt3__122__compressed_pair_elemINS_12basic_stringIcNS_11char_traitsIcEENS_9allocatorIcEEE5__repELi0ELb0EE5__getB8ue170006Ev, symObjAddr: 0xCBC, symBinAddr: 0x100001584, symSize: 0x14 }
  - { offsetInCU: 0x85B0, offset: 0x85B0, size: 0x8, addend: 0x0, symName: __ZNSt3__19allocatorIcE10deallocateB8ue170006EPcm, symObjAddr: 0xCD0, symBinAddr: 0x100001598, symSize: 0x40 }
  - { offsetInCU: 0x85F0, offset: 0x85F0, size: 0x8, addend: 0x0, symName: __ZNSt3__117__compressed_pairINS_12basic_stringIcNS_11char_traitsIcEENS_9allocatorIcEEE5__repES5_E6secondB8ue170006Ev, symObjAddr: 0xD8C, symBinAddr: 0x100001654, symSize: 0x24 }
  - { offsetInCU: 0x8614, offset: 0x8614, size: 0x8, addend: 0x0, symName: __ZNSt3__122__compressed_pair_elemINS_9allocatorIcEELi1ELb1EE5__getB8ue170006Ev, symObjAddr: 0xDB0, symBinAddr: 0x100001678, symSize: 0x14 }
  - { offsetInCU: 0x8639, offset: 0x8639, size: 0x8, addend: 0x0, symName: __ZNSt3__112basic_stringIcNS_11char_traitsIcEENS_9allocatorIcEEE19__move_assign_allocB8ue170006ERS5_NS_17integral_constantIbLb1EEE, symObjAddr: 0xDC4, symBinAddr: 0x10000168C, symSize: 0x38 }
  - { offsetInCU: 0x8678, offset: 0x8678, size: 0x8, addend: 0x0, symName: __ZNSt3__114pointer_traitsIPcE10pointer_toB8ue170006ERc, symObjAddr: 0xDFC, symBinAddr: 0x1000016C4, symSize: 0x14 }
  - { offsetInCU: 0x869B, offset: 0x869B, size: 0x8, addend: 0x0, symName: __ZNKSt3__112basic_stringIcNS_11char_traitsIcEENS_9allocatorIcEEE4dataB8ue170006Ev, symObjAddr: 0xE4C, symBinAddr: 0x100001714, symSize: 0x28 }
  - { offsetInCU: 0x86BF, offset: 0x86BF, size: 0x8, addend: 0x0, symName: __ZNKSt3__112basic_stringIcNS_11char_traitsIcEENS_9allocatorIcEEE4sizeB8ue170006Ev, symObjAddr: 0xE74, symBinAddr: 0x10000173C, symSize: 0x54 }
  - { offsetInCU: 0x86E3, offset: 0x86E3, size: 0x8, addend: 0x0, symName: __ZNKSt3__121__murmur2_or_cityhashImLm64EEclB8ue170006EPKvm, symObjAddr: 0xEC8, symBinAddr: 0x100001790, symSize: 0x410 }
  - { offsetInCU: 0x877B, offset: 0x877B, size: 0x8, addend: 0x0, symName: __ZNSt3__121__murmur2_or_cityhashImLm64EE18__hash_len_0_to_16B8ue170006EPKcm, symObjAddr: 0x12D8, symBinAddr: 0x100001BA0, symSize: 0x1C0 }
  - { offsetInCU: 0x8857, offset: 0x8857, size: 0x8, addend: 0x0, symName: __ZNSt3__121__murmur2_or_cityhashImLm64EE19__hash_len_17_to_32B8ue170006EPKcm, symObjAddr: 0x1498, symBinAddr: 0x100001D60, symSize: 0x130 }
  - { offsetInCU: 0x88C0, offset: 0x88C0, size: 0x8, addend: 0x0, symName: __ZNSt3__121__murmur2_or_cityhashImLm64EE19__hash_len_33_to_64B8ue170006EPKcm, symObjAddr: 0x15C8, symBinAddr: 0x100001E90, symSize: 0x2B8 }
  - { offsetInCU: 0x8975, offset: 0x8975, size: 0x8, addend: 0x0, symName: __ZNSt3__121__murmur2_or_cityhashImLm64EE13__hash_len_16B8ue170006Emm, symObjAddr: 0x18A0, symBinAddr: 0x100002168, symSize: 0x80 }
  - { offsetInCU: 0x89D0, offset: 0x89D0, size: 0x8, addend: 0x0, symName: __ZNSt3__121__murmur2_or_cityhashImLm64EE29__weak_hash_len_32_with_seedsB8ue170006EPKcmm, symObjAddr: 0x1920, symBinAddr: 0x1000021E8, symSize: 0x88 }
  - { offsetInCU: 0x8A0F, offset: 0x8A0F, size: 0x8, addend: 0x0, symName: __ZNSt3__121__murmur2_or_cityhashImLm64EE8__rotateB8ue170006Emi, symObjAddr: 0x19A8, symBinAddr: 0x100002270, symSize: 0x64 }
  - { offsetInCU: 0x8A40, offset: 0x8A40, size: 0x8, addend: 0x0, symName: __ZNSt3__14pairImmEaSB8ue170006EOS1_, symObjAddr: 0x1A0C, symBinAddr: 0x1000022D4, symSize: 0x30 }
  - { offsetInCU: 0x8A74, offset: 0x8A74, size: 0x8, addend: 0x0, symName: __ZNSt3__121__murmur2_or_cityhashImLm64EE11__shift_mixB8ue170006Em, symObjAddr: 0x1A78, symBinAddr: 0x100002340, symSize: 0x1C }
  - { offsetInCU: 0x8A97, offset: 0x8A97, size: 0x8, addend: 0x0, symName: __ZNSt3__121__murmur2_or_cityhashImLm64EE22__rotate_by_at_least_1B8ue170006Emi, symObjAddr: 0x1A94, symBinAddr: 0x10000235C, symSize: 0x38 }
  - { offsetInCU: 0x8AC8, offset: 0x8AC8, size: 0x8, addend: 0x0, symName: __ZNSt3__121__murmur2_or_cityhashImLm64EE29__weak_hash_len_32_with_seedsB8ue170006Emmmmmm, symObjAddr: 0x1AEC, symBinAddr: 0x1000023B4, symSize: 0xD8 }
  - { offsetInCU: 0x8B43, offset: 0x8B43, size: 0x8, addend: 0x0, symName: __ZNSt3__14pairImmEC1B8ue170006ImmLPv0EEEOT_OT0_, symObjAddr: 0x1BC4, symBinAddr: 0x10000248C, symSize: 0x3C }
  - { offsetInCU: 0x8BA0, offset: 0x8BA0, size: 0x8, addend: 0x0, symName: __ZNSt3__14pairImmEC2B8ue170006ImmLPv0EEEOT_OT0_, symObjAddr: 0x1C00, symBinAddr: 0x1000024C8, symSize: 0x34 }
  - { offsetInCU: 0x8BFD, offset: 0x8BFD, size: 0x8, addend: 0x0, symName: __ZNKSt3__112basic_stringIcNS_11char_traitsIcEENS_9allocatorIcEEE13__get_pointerB8ue170006Ev, symObjAddr: 0x1C48, symBinAddr: 0x100002510, symSize: 0x54 }
  - { offsetInCU: 0x8C21, offset: 0x8C21, size: 0x8, addend: 0x0, symName: __ZNKSt3__112basic_stringIcNS_11char_traitsIcEENS_9allocatorIcEEE18__get_long_pointerB8ue170006Ev, symObjAddr: 0x1C9C, symBinAddr: 0x100002564, symSize: 0x28 }
  - { offsetInCU: 0x8C45, offset: 0x8C45, size: 0x8, addend: 0x0, symName: __ZNKSt3__112basic_stringIcNS_11char_traitsIcEENS_9allocatorIcEEE19__get_short_pointerB8ue170006Ev, symObjAddr: 0x1CC4, symBinAddr: 0x10000258C, symSize: 0x28 }
  - { offsetInCU: 0x8C69, offset: 0x8C69, size: 0x8, addend: 0x0, symName: __ZNSt3__114pointer_traitsIPKcE10pointer_toB8ue170006ERS1_, symObjAddr: 0x1CEC, symBinAddr: 0x1000025B4, symSize: 0x14 }
  - { offsetInCU: 0x8C8C, offset: 0x8C8C, size: 0x8, addend: 0x0, symName: __ZNKSt3__112basic_stringIcNS_11char_traitsIcEENS_9allocatorIcEEE15__get_long_sizeB8ue170006Ev, symObjAddr: 0x1D00, symBinAddr: 0x1000025C8, symSize: 0x28 }
  - { offsetInCU: 0x8CB0, offset: 0x8CB0, size: 0x8, addend: 0x0, symName: __ZNKSt3__112basic_stringIcNS_11char_traitsIcEENS_9allocatorIcEEE16__get_short_sizeB8ue170006Ev, symObjAddr: 0x1D28, symBinAddr: 0x1000025F0, symSize: 0x34 }
  - { offsetInCU: 0x8CD4, offset: 0x8CD4, size: 0x8, addend: 0x0, symName: __ZNSt3__111char_traitsIcE6lengthB8ue170006EPKc, symObjAddr: 0x1F48, symBinAddr: 0x100002810, symSize: 0x34 }
  - { offsetInCU: 0x8D15, offset: 0x8D15, size: 0x8, addend: 0x0, symName: __ZNKSt3__113basic_ostreamIcNS_11char_traitsIcEEE6sentrycvbB8ue170006Ev, symObjAddr: 0x1F7C, symBinAddr: 0x100002844, symSize: 0x1C }
  - { offsetInCU: 0x8D39, offset: 0x8D39, size: 0x8, addend: 0x0, symName: __ZNSt3__119ostreambuf_iteratorIcNS_11char_traitsIcEEEC1B8ue170006ERNS_13basic_ostreamIcS2_EE, symObjAddr: 0x21D8, symBinAddr: 0x100002AA0, symSize: 0x34 }
  - { offsetInCU: 0x8D70, offset: 0x8D70, size: 0x8, addend: 0x0, symName: __ZNKSt3__18ios_base5flagsB8ue170006Ev, symObjAddr: 0x220C, symBinAddr: 0x100002AD4, symSize: 0x18 }
  - { offsetInCU: 0x8D97, offset: 0x8D97, size: 0x8, addend: 0x0, symName: __ZNKSt3__19basic_iosIcNS_11char_traitsIcEEE4fillB8ue170006Ev, symObjAddr: 0x2224, symBinAddr: 0x100002AEC, symSize: 0x64 }
  - { offsetInCU: 0x8DBE, offset: 0x8DBE, size: 0x8, addend: 0x0, symName: __ZNKSt3__119ostreambuf_iteratorIcNS_11char_traitsIcEEE6failedB8ue170006Ev, symObjAddr: 0x2288, symBinAddr: 0x100002B50, symSize: 0x24 }
  - { offsetInCU: 0x8DE3, offset: 0x8DE3, size: 0x8, addend: 0x0, symName: __ZNSt3__19basic_iosIcNS_11char_traitsIcEEE8setstateB8ue170006Ej, symObjAddr: 0x22AC, symBinAddr: 0x100002B74, symSize: 0x2C }
  - { offsetInCU: 0x8E16, offset: 0x8E16, size: 0x8, addend: 0x0, symName: __ZNKSt3__18ios_base5widthB8ue170006Ev, symObjAddr: 0x22D8, symBinAddr: 0x100002BA0, symSize: 0x18 }
  - { offsetInCU: 0x8E3D, offset: 0x8E3D, size: 0x8, addend: 0x0, symName: __ZNSt3__115basic_streambufIcNS_11char_traitsIcEEE5sputnB8ue170006EPKcl, symObjAddr: 0x22F0, symBinAddr: 0x100002BB8, symSize: 0x3C }
  - { offsetInCU: 0x8E7C, offset: 0x8E7C, size: 0x8, addend: 0x0, symName: __ZNSt3__112basic_stringIcNS_11char_traitsIcEENS_9allocatorIcEEEC1B8ue170006Emc, symObjAddr: 0x232C, symBinAddr: 0x100002BF4, symSize: 0x3C }
  - { offsetInCU: 0x8EC3, offset: 0x8EC3, size: 0x8, addend: 0x0, symName: __ZNSt3__18ios_base5widthB8ue170006El, symObjAddr: 0x2368, symBinAddr: 0x100002C30, symSize: 0x2C }
  - { offsetInCU: 0x8F07, offset: 0x8F07, size: 0x8, addend: 0x0, symName: __ZNSt3__112basic_stringIcNS_11char_traitsIcEENS_9allocatorIcEEEC2B8ue170006Emc, symObjAddr: 0x2394, symBinAddr: 0x100002C5C, symSize: 0x4C }
  - { offsetInCU: 0x8F4D, offset: 0x8F4D, size: 0x8, addend: 0x0, symName: __ZNSt3__119ostreambuf_iteratorIcNS_11char_traitsIcEEEC2B8ue170006ERNS_13basic_ostreamIcS2_EE, symObjAddr: 0x23E0, symBinAddr: 0x100002CA8, symSize: 0x54 }
  - { offsetInCU: 0x8F84, offset: 0x8F84, size: 0x8, addend: 0x0, symName: __ZNKSt3__19basic_iosIcNS_11char_traitsIcEEE5rdbufB8ue170006Ev, symObjAddr: 0x2434, symBinAddr: 0x100002CFC, symSize: 0x24 }
  - { offsetInCU: 0x8FAB, offset: 0x8FAB, size: 0x8, addend: 0x0, symName: __ZNKSt3__18ios_base5rdbufB8ue170006Ev, symObjAddr: 0x2458, symBinAddr: 0x100002D20, symSize: 0x18 }
  - { offsetInCU: 0x8FD0, offset: 0x8FD0, size: 0x8, addend: 0x0, symName: __ZNSt3__111char_traitsIcE11eq_int_typeB8ue170006Eii, symObjAddr: 0x2470, symBinAddr: 0x100002D38, symSize: 0x28 }
  - { offsetInCU: 0x9003, offset: 0x9003, size: 0x8, addend: 0x0, symName: __ZNSt3__111char_traitsIcE3eofB8ue170006Ev, symObjAddr: 0x2498, symBinAddr: 0x100002D60, symSize: 0x8 }
  - { offsetInCU: 0x9017, offset: 0x9017, size: 0x8, addend: 0x0, symName: __ZNKSt3__19basic_iosIcNS_11char_traitsIcEEE5widenB8ue170006Ec, symObjAddr: 0x24A0, symBinAddr: 0x100002D68, symSize: 0x84 }
  - { offsetInCU: 0x9084, offset: 0x9084, size: 0x8, addend: 0x0, symName: __ZNKSt3__15ctypeIcE5widenB8ue170006Ec, symObjAddr: 0x2550, symBinAddr: 0x100002E18, symSize: 0x38 }
  - { offsetInCU: 0x90B7, offset: 0x90B7, size: 0x8, addend: 0x0, symName: __ZNSt3__18ios_base8setstateB8ue170006Ej, symObjAddr: 0x2588, symBinAddr: 0x100002E50, symSize: 0x34 }
  - { offsetInCU: 0x90ED, offset: 0x90ED, size: 0x8, addend: 0x0, symName: __ZNSt3__111char_traitsIcE7compareB8ue170006EPKcS3_m, symObjAddr: 0x25E0, symBinAddr: 0x100002EA8, symSize: 0x34 }
  - { offsetInCU: 0x912C, offset: 0x912C, size: 0x8, addend: 0x0, symName: __ZNKSt3__112basic_stringIcNS_11char_traitsIcEENS_9allocatorIcEEE7compareB8ue170006ERKS5_, symObjAddr: 0x2614, symBinAddr: 0x100002EDC, symSize: 0x4C }
  - { offsetInCU: 0x9162, offset: 0x9162, size: 0x8, addend: 0x0, symName: __ZNKSt3__112basic_stringIcNS_11char_traitsIcEENS_9allocatorIcEEE7compareINS_17basic_string_viewIcS2_EELi0EEEiRKT_, symObjAddr: 0x2660, symBinAddr: 0x100002F28, symSize: 0x12C }
  - { offsetInCU: 0x91E4, offset: 0x91E4, size: 0x8, addend: 0x0, symName: __ZNKSt3__112basic_stringIcNS_11char_traitsIcEENS_9allocatorIcEEEcvNS_17basic_string_viewIcS2_EEB8ue170006Ev, symObjAddr: 0x278C, symBinAddr: 0x100003054, symSize: 0x50 }
  - { offsetInCU: 0x9208, offset: 0x9208, size: 0x8, addend: 0x0, symName: __ZNKSt3__117basic_string_viewIcNS_11char_traitsIcEEE4sizeB8ue170006Ev, symObjAddr: 0x27DC, symBinAddr: 0x1000030A4, symSize: 0x18 }
  - { offsetInCU: 0x922D, offset: 0x922D, size: 0x8, addend: 0x0, symName: __ZNKSt3__117basic_string_viewIcNS_11char_traitsIcEEE4dataB8ue170006Ev, symObjAddr: 0x27F4, symBinAddr: 0x1000030BC, symSize: 0x18 }
  - { offsetInCU: 0x9261, offset: 0x9261, size: 0x8, addend: 0x0, symName: __ZNKSt3__16__lessIvvEclB8ue170006ImmEEbRKT_RKT0_, symObjAddr: 0x288C, symBinAddr: 0x100003154, symSize: 0x34 }
  - { offsetInCU: 0x92B3, offset: 0x92B3, size: 0x8, addend: 0x0, symName: __ZNSt3__117basic_string_viewIcNS_11char_traitsIcEEEC1B8ue170006EPKcm, symObjAddr: 0x28C0, symBinAddr: 0x100003188, symSize: 0x3C }
  - { offsetInCU: 0x92FA, offset: 0x92FA, size: 0x8, addend: 0x0, symName: __ZNSt3__117basic_string_viewIcNS_11char_traitsIcEEEC2B8ue170006EPKcm, symObjAddr: 0x28FC, symBinAddr: 0x1000031C4, symSize: 0x2C }
  - { offsetInCU: 0x4C97, offset: 0xE05E, size: 0x8, addend: 0x0, symName: __ZNSt3__1neB8ue170006IPK6RecordEEbRKNS_11__wrap_iterIT_EES8_, symObjAddr: 0x674, symBinAddr: 0x100003798, symSize: 0x34 }
  - { offsetInCU: 0x4CDA, offset: 0xE0A1, size: 0x8, addend: 0x0, symName: __ZNSt3__1neB8ue170006IP6RecordEEbRKNS_11__wrap_iterIT_EES7_, symObjAddr: 0x7B8, symBinAddr: 0x1000038DC, symSize: 0x34 }
  - { offsetInCU: 0x4D1D, offset: 0xE0E4, size: 0x8, addend: 0x0, symName: __ZNSt3__1eqB8ue170006IPK6RecordEEbRKNS_11__wrap_iterIT_EES8_, symObjAddr: 0x824, symBinAddr: 0x100003948, symSize: 0x48 }
  - { offsetInCU: 0x4D60, offset: 0xE127, size: 0x8, addend: 0x0, symName: __ZNSt3__1eqB8ue170006IP6RecordEEbRKNS_11__wrap_iterIT_EES7_, symObjAddr: 0x884, symBinAddr: 0x1000039A8, symSize: 0x48 }
  - { offsetInCU: 0x4DA3, offset: 0xE16A, size: 0x8, addend: 0x0, symName: __ZNSt3__112__to_addressB8ue170006I6RecordEEPT_S3_, symObjAddr: 0xDB8, symBinAddr: 0x100003ED0, symSize: 0x14 }
  - { offsetInCU: 0x4DD8, offset: 0xE19F, size: 0x8, addend: 0x0, symName: __ZNSt3__13maxB8ue170006ImEERKT_S3_S3_, symObjAddr: 0x1678, symBinAddr: 0x100004714, symSize: 0x2C }
  - { offsetInCU: 0x5026, offset: 0xE3ED, size: 0x8, addend: 0x0, symName: __ZNSt3__120__throw_length_errorB8ue170006EPKc, symObjAddr: 0x1810, symBinAddr: 0x1000047F8, symSize: 0x64 }
  - { offsetInCU: 0x5051, offset: 0xE418, size: 0x8, addend: 0x0, symName: __ZNSt3__13maxB8ue170006ImNS_6__lessIvvEEEERKT_S5_S5_T0_, symObjAddr: 0x18F4, symBinAddr: 0x1000048DC, symSize: 0x54 }
  - { offsetInCU: 0x50AB, offset: 0xE472, size: 0x8, addend: 0x0, symName: __ZNSt3__119__allocate_at_leastB8ue170006INS_9allocatorI6RecordEEEENS_19__allocation_resultINS_16allocator_traitsIT_E7pointerEEERS6_m, symObjAddr: 0x1A64, symBinAddr: 0x100004A4C, symSize: 0x40 }
  - { offsetInCU: 0x50EE, offset: 0xE4B5, size: 0x8, addend: 0x0, symName: __ZNSt3__117__libcpp_allocateB8ue170006Emm, symObjAddr: 0x1BEC, symBinAddr: 0x100004BD4, symSize: 0x28 }
  - { offsetInCU: 0x512B, offset: 0xE4F2, size: 0x8, addend: 0x0, symName: __ZNSt3__121__libcpp_operator_newB8ue170006IJmEEEPvDpT_, symObjAddr: 0x1C14, symBinAddr: 0x100004BFC, symSize: 0x24 }
  - { offsetInCU: 0x5164, offset: 0xE52B, size: 0x8, addend: 0x0, symName: __ZNSt3__142__uninitialized_allocator_move_if_noexceptB8ue170006INS_9allocatorI6RecordEENS_16reverse_iteratorIPS2_EES6_S6_EET2_RT_T0_T1_S7_, symObjAddr: 0x1C9C, symBinAddr: 0x100004C84, symSize: 0x12C }
  - { offsetInCU: 0x5204, offset: 0xE5CB, size: 0x8, addend: 0x0, symName: __ZNSt3__14swapB8ue170006IP6RecordEENS_9enable_ifIXaasr21is_move_constructibleIT_EE5valuesr18is_move_assignableIS4_EE5valueEvE4typeERS4_S7_, symObjAddr: 0x1E14, symBinAddr: 0x100004DFC, symSize: 0x3C }
  - { offsetInCU: 0x5255, offset: 0xE61C, size: 0x8, addend: 0x0, symName: __ZNSt3__122__make_exception_guardB8ue170006INS_29_AllocatorDestroyRangeReverseINS_9allocatorI6RecordEENS_16reverse_iteratorIPS3_EEEEEENS_28__exception_guard_exceptionsIT_EESA_, symObjAddr: 0x1F18, symBinAddr: 0x100004F00, symSize: 0x4C }
  - { offsetInCU: 0x528B, offset: 0xE652, size: 0x8, addend: 0x0, symName: __ZNSt3__1neB8ue170006IP6RecordS2_EEbRKNS_16reverse_iteratorIT_EERKNS3_IT0_EE, symObjAddr: 0x1FA8, symBinAddr: 0x100004F90, symSize: 0x48 }
  - { offsetInCU: 0x52D7, offset: 0xE69E, size: 0x8, addend: 0x0, symName: __ZNSt3__112__to_addressB8ue170006INS_16reverse_iteratorIP6RecordEEvEEu7__decayIDTclsr19__to_address_helperIT_EE6__callclsr3stdE7declvalIRKS5_EEEEES7_, symObjAddr: 0x1FF0, symBinAddr: 0x100004FD8, symSize: 0x24 }
  - { offsetInCU: 0x5338, offset: 0xE6FF, size: 0x8, addend: 0x0, symName: __ZNSt3__119__allocator_destroyB8ue170006INS_9allocatorI6RecordEENS_16reverse_iteratorINS4_IPS2_EEEES7_EEvRT_T0_T1_, symObjAddr: 0x22A0, symBinAddr: 0x100005288, symSize: 0x70 }
  - { offsetInCU: 0x539D, offset: 0xE764, size: 0x8, addend: 0x0, symName: __ZNSt3__1neB8ue170006INS_16reverse_iteratorIP6RecordEES4_EEbRKNS1_IT_EERKNS1_IT0_EE, symObjAddr: 0x234C, symBinAddr: 0x100005334, symSize: 0x60 }
  - { offsetInCU: 0x53E9, offset: 0xE7B0, size: 0x8, addend: 0x0, symName: __ZNSt3__112__to_addressB8ue170006INS_16reverse_iteratorINS1_IP6RecordEEEEvEEu7__decayIDTclsr19__to_address_helperIT_EE6__callclsr3stdE7declvalIRKS6_EEEEES8_, symObjAddr: 0x23AC, symBinAddr: 0x100005394, symSize: 0x24 }
  - { offsetInCU: 0x5602, offset: 0xE9C9, size: 0x8, addend: 0x0, symName: __ZSt28__throw_bad_array_new_lengthB8ue170006v, symObjAddr: 0x1BB8, symBinAddr: 0x100004BA0, symSize: 0x34 }
  - { offsetInCU: 0x5A19, offset: 0xEDE0, size: 0x8, addend: 0x0, symName: __ZNSt3__16vectorI6RecordNS_9allocatorIS1_EEE26__swap_out_circular_bufferERNS_14__split_bufferIS1_RS3_EE, symObjAddr: 0x14C0, symBinAddr: 0x10000455C, symSize: 0x110 }
  - { offsetInCU: 0x794B, offset: 0x10D12, size: 0x8, addend: 0x0, symName: __ZN4PageC2Ev, symObjAddr: 0x0, symBinAddr: 0x1000031F0, symSize: 0x2C }
  - { offsetInCU: 0x7975, offset: 0x10D3C, size: 0x8, addend: 0x0, symName: __ZNSt3__16vectorI6RecordNS_9allocatorIS1_EEEC1B8ue170006Ev, symObjAddr: 0x2C, symBinAddr: 0x10000321C, symSize: 0x2C }
  - { offsetInCU: 0x799D, offset: 0x10D64, size: 0x8, addend: 0x0, symName: __ZN4PageC1Ev, symObjAddr: 0x58, symBinAddr: 0x100003248, symSize: 0x2C }
  - { offsetInCU: 0x79C7, offset: 0x10D8E, size: 0x8, addend: 0x0, symName: __ZN4PageC2ERKS_, symObjAddr: 0x84, symBinAddr: 0x100003274, symSize: 0x64 }
  - { offsetInCU: 0x79FF, offset: 0x10DC6, size: 0x8, addend: 0x0, symName: __ZN4Page8loadPageEPKS_, symObjAddr: 0xE8, symBinAddr: 0x1000032D8, symSize: 0x90 }
  - { offsetInCU: 0x7A87, offset: 0x10E4E, size: 0x8, addend: 0x0, symName: __ZNSt3__16vectorI6RecordNS_9allocatorIS1_EEED1B8ue170006Ev, symObjAddr: 0x178, symBinAddr: 0x100003368, symSize: 0x2C }
  - { offsetInCU: 0x7AAF, offset: 0x10E76, size: 0x8, addend: 0x0, symName: __ZN4PageC1ERKS_, symObjAddr: 0x1A4, symBinAddr: 0x100003394, symSize: 0x34 }
  - { offsetInCU: 0x7AE7, offset: 0x10EAE, size: 0x8, addend: 0x0, symName: __ZN4Page4sizeEv, symObjAddr: 0x1D8, symBinAddr: 0x1000033C8, symSize: 0x24 }
  - { offsetInCU: 0x7B0E, offset: 0x10ED5, size: 0x8, addend: 0x0, symName: __ZNKSt3__16vectorI6RecordNS_9allocatorIS1_EEE4sizeB8ue170006Ev, symObjAddr: 0x1FC, symBinAddr: 0x1000033EC, symSize: 0x28 }
  - { offsetInCU: 0x7B33, offset: 0x10EFA, size: 0x8, addend: 0x0, symName: __ZN4Page5emptyEv, symObjAddr: 0x224, symBinAddr: 0x100003414, symSize: 0x28 }
  - { offsetInCU: 0x7B5A, offset: 0x10F21, size: 0x8, addend: 0x0, symName: __ZNKSt3__16vectorI6RecordNS_9allocatorIS1_EEE5emptyB8ue170006Ev, symObjAddr: 0x24C, symBinAddr: 0x10000343C, symSize: 0x28 }
  - { offsetInCU: 0x7B7F, offset: 0x10F46, size: 0x8, addend: 0x0, symName: __ZN4Page4fullEv, symObjAddr: 0x274, symBinAddr: 0x100003464, symSize: 0x30 }
  - { offsetInCU: 0x7BA6, offset: 0x10F6D, size: 0x8, addend: 0x0, symName: __ZN4Page5resetEv, symObjAddr: 0x2A4, symBinAddr: 0x100003494, symSize: 0x24 }
  - { offsetInCU: 0x7BCD, offset: 0x10F94, size: 0x8, addend: 0x0, symName: __ZNSt3__16vectorI6RecordNS_9allocatorIS1_EEE5clearB8ue170006Ev, symObjAddr: 0x2C8, symBinAddr: 0x1000034B8, symSize: 0x44 }
  - { offsetInCU: 0x7C00, offset: 0x10FC7, size: 0x8, addend: 0x0, symName: __ZN4Page10get_recordEj, symObjAddr: 0x30C, symBinAddr: 0x1000034FC, symSize: 0x44 }
  - { offsetInCU: 0x7C35, offset: 0x10FFC, size: 0x8, addend: 0x0, symName: __ZNSt3__16vectorI6RecordNS_9allocatorIS1_EEEixB8ue170006Em, symObjAddr: 0x350, symBinAddr: 0x100003540, symSize: 0x2C }
  - { offsetInCU: 0x7C6B, offset: 0x11032, size: 0x8, addend: 0x0, symName: __ZN4Page10loadRecordERK6Record, symObjAddr: 0x37C, symBinAddr: 0x10000356C, symSize: 0x74 }
  - { offsetInCU: 0x7C9F, offset: 0x11066, size: 0x8, addend: 0x0, symName: __ZNSt3__16vectorI6RecordNS_9allocatorIS1_EEE12emplace_backIJRKS1_EEEvDpOT_, symObjAddr: 0x3F0, symBinAddr: 0x1000035E0, symSize: 0x6C }
  - { offsetInCU: 0x7CE1, offset: 0x110A8, size: 0x8, addend: 0x0, symName: __ZN4Page8loadPairERK6RecordS2_, symObjAddr: 0x528, symBinAddr: 0x10000364C, symSize: 0x80 }
  - { offsetInCU: 0x7D23, offset: 0x110EA, size: 0x8, addend: 0x0, symName: __ZNSt3__16vectorI6RecordNS_9allocatorIS1_EEE9push_backB8ue170006ERKS1_, symObjAddr: 0x5A8, symBinAddr: 0x1000036CC, symSize: 0x6C }
  - { offsetInCU: 0x7D59, offset: 0x11120, size: 0x8, addend: 0x0, symName: __ZNKSt3__16vectorI6RecordNS_9allocatorIS1_EEE5beginB8ue170006Ev, symObjAddr: 0x614, symBinAddr: 0x100003738, symSize: 0x30 }
  - { offsetInCU: 0x7D80, offset: 0x11147, size: 0x8, addend: 0x0, symName: __ZNKSt3__16vectorI6RecordNS_9allocatorIS1_EEE3endB8ue170006Ev, symObjAddr: 0x644, symBinAddr: 0x100003768, symSize: 0x30 }
  - { offsetInCU: 0x7DA8, offset: 0x1116F, size: 0x8, addend: 0x0, symName: __ZNKSt3__111__wrap_iterIPK6RecordEdeB8ue170006Ev, symObjAddr: 0x6A8, symBinAddr: 0x1000037CC, symSize: 0x18 }
  - { offsetInCU: 0x7DCD, offset: 0x11194, size: 0x8, addend: 0x0, symName: __ZNSt3__111__wrap_iterIPK6RecordEppB8ue170006Ev, symObjAddr: 0x6C0, symBinAddr: 0x1000037E4, symSize: 0x20 }
  - { offsetInCU: 0x7DF2, offset: 0x111B9, size: 0x8, addend: 0x0, symName: __ZN4Page5printEv, symObjAddr: 0x6E0, symBinAddr: 0x100003804, symSize: 0x78 }
  - { offsetInCU: 0x7E6A, offset: 0x11231, size: 0x8, addend: 0x0, symName: __ZNSt3__16vectorI6RecordNS_9allocatorIS1_EEE5beginB8ue170006Ev, symObjAddr: 0x758, symBinAddr: 0x10000387C, symSize: 0x30 }
  - { offsetInCU: 0x7E91, offset: 0x11258, size: 0x8, addend: 0x0, symName: __ZNSt3__16vectorI6RecordNS_9allocatorIS1_EEE3endB8ue170006Ev, symObjAddr: 0x788, symBinAddr: 0x1000038AC, symSize: 0x30 }
  - { offsetInCU: 0x7EB9, offset: 0x11280, size: 0x8, addend: 0x0, symName: __ZNKSt3__111__wrap_iterIP6RecordEdeB8ue170006Ev, symObjAddr: 0x7EC, symBinAddr: 0x100003910, symSize: 0x18 }
  - { offsetInCU: 0x7EDE, offset: 0x112A5, size: 0x8, addend: 0x0, symName: __ZNSt3__111__wrap_iterIP6RecordEppB8ue170006Ev, symObjAddr: 0x804, symBinAddr: 0x100003928, symSize: 0x20 }
  - { offsetInCU: 0x7F03, offset: 0x112CA, size: 0x8, addend: 0x0, symName: __ZNKSt3__111__wrap_iterIPK6RecordE4baseB8ue170006Ev, symObjAddr: 0x86C, symBinAddr: 0x100003990, symSize: 0x18 }
  - { offsetInCU: 0x7F28, offset: 0x112EF, size: 0x8, addend: 0x0, symName: __ZNKSt3__111__wrap_iterIP6RecordE4baseB8ue170006Ev, symObjAddr: 0x8CC, symBinAddr: 0x1000039F0, symSize: 0x18 }
  - { offsetInCU: 0x7F4D, offset: 0x11314, size: 0x8, addend: 0x0, symName: __ZNSt3__16vectorI6RecordNS_9allocatorIS1_EEEC2B8ue170006Ev, symObjAddr: 0x8E4, symBinAddr: 0x100003A08, symSize: 0x4C }
  - { offsetInCU: 0x7F7F, offset: 0x11346, size: 0x8, addend: 0x0, symName: __ZNSt3__117__compressed_pairIP6RecordNS_9allocatorIS1_EEEC1B8ue170006IDnNS_18__default_init_tagEEEOT_OT0_, symObjAddr: 0x930, symBinAddr: 0x100003A54, symSize: 0x3C }
  - { offsetInCU: 0x7FD5, offset: 0x1139C, size: 0x8, addend: 0x0, symName: __ZNSt3__117__compressed_pairIP6RecordNS_9allocatorIS1_EEEC2B8ue170006IDnNS_18__default_init_tagEEEOT_OT0_, symObjAddr: 0x978, symBinAddr: 0x100003A90, symSize: 0x40 }
  - { offsetInCU: 0x802B, offset: 0x113F2, size: 0x8, addend: 0x0, symName: __ZNSt3__122__compressed_pair_elemIP6RecordLi0ELb0EEC2B8ue170006IDnvEEOT_, symObjAddr: 0x9B8, symBinAddr: 0x100003AD0, symSize: 0x1C }
  - { offsetInCU: 0x806D, offset: 0x11434, size: 0x8, addend: 0x0, symName: __ZNSt3__122__compressed_pair_elemINS_9allocatorI6RecordEELi1ELb1EEC2B8ue170006ENS_18__default_init_tagE, symObjAddr: 0x9D4, symBinAddr: 0x100003AEC, symSize: 0x2C }
  - { offsetInCU: 0x80A0, offset: 0x11467, size: 0x8, addend: 0x0, symName: __ZNSt3__19allocatorI6RecordEC2B8ue170006Ev, symObjAddr: 0xA00, symBinAddr: 0x100003B18, symSize: 0x2C }
  - { offsetInCU: 0x80C8, offset: 0x1148F, size: 0x8, addend: 0x0, symName: __ZNSt3__116__non_trivial_ifILb1ENS_9allocatorI6RecordEEEC2B8ue170006Ev, symObjAddr: 0xA2C, symBinAddr: 0x100003B44, symSize: 0x14 }
  - { offsetInCU: 0x80F1, offset: 0x114B8, size: 0x8, addend: 0x0, symName: __ZNSt3__16vectorI6RecordNS_9allocatorIS1_EEED2B8ue170006Ev, symObjAddr: 0xA40, symBinAddr: 0x100003B58, symSize: 0x44 }
  - { offsetInCU: 0x8119, offset: 0x114E0, size: 0x8, addend: 0x0, symName: __ZNSt3__16vectorI6RecordNS_9allocatorIS1_EEE16__destroy_vectorC1B8ue170006ERS4_, symObjAddr: 0xA84, symBinAddr: 0x100003B9C, symSize: 0x34 }
  - { offsetInCU: 0x8150, offset: 0x11517, size: 0x8, addend: 0x0, symName: __ZNSt3__16vectorI6RecordNS_9allocatorIS1_EEE16__destroy_vectorclB8ue170006Ev, symObjAddr: 0xAB8, symBinAddr: 0x100003BD0, symSize: 0x90 }
  - { offsetInCU: 0x8174, offset: 0x1153B, size: 0x8, addend: 0x0, symName: __ZNSt3__16vectorI6RecordNS_9allocatorIS1_EEE16__destroy_vectorC2B8ue170006ERS4_, symObjAddr: 0xB48, symBinAddr: 0x100003C60, symSize: 0x20 }
  - { offsetInCU: 0x81AC, offset: 0x11573, size: 0x8, addend: 0x0, symName: __ZNSt3__16vectorI6RecordNS_9allocatorIS1_EEE7__clearB8ue170006Ev, symObjAddr: 0xB68, symBinAddr: 0x100003C80, symSize: 0x28 }
  - { offsetInCU: 0x81D0, offset: 0x11597, size: 0x8, addend: 0x0, symName: __ZNKSt3__16vectorI6RecordNS_9allocatorIS1_EEE17__annotate_deleteB8ue170006Ev, symObjAddr: 0xB90, symBinAddr: 0x100003CA8, symSize: 0xD4 }
  - { offsetInCU: 0x81F4, offset: 0x115BB, size: 0x8, addend: 0x0, symName: __ZNSt3__116allocator_traitsINS_9allocatorI6RecordEEE10deallocateB8ue170006ERS3_PS2_m, symObjAddr: 0xC64, symBinAddr: 0x100003D7C, symSize: 0x34 }
  - { offsetInCU: 0x8236, offset: 0x115FD, size: 0x8, addend: 0x0, symName: __ZNSt3__16vectorI6RecordNS_9allocatorIS1_EEE7__allocB8ue170006Ev, symObjAddr: 0xC98, symBinAddr: 0x100003DB0, symSize: 0x28 }
  - { offsetInCU: 0x825A, offset: 0x11621, size: 0x8, addend: 0x0, symName: __ZNKSt3__16vectorI6RecordNS_9allocatorIS1_EEE8capacityB8ue170006Ev, symObjAddr: 0xCC0, symBinAddr: 0x100003DD8, symSize: 0x40 }
  - { offsetInCU: 0x827E, offset: 0x11645, size: 0x8, addend: 0x0, symName: __ZNSt3__16vectorI6RecordNS_9allocatorIS1_EEE22__base_destruct_at_endB8ue170006EPS1_, symObjAddr: 0xD00, symBinAddr: 0x100003E18, symSize: 0x8C }
  - { offsetInCU: 0x82C0, offset: 0x11687, size: 0x8, addend: 0x0, symName: __ZNSt3__116allocator_traitsINS_9allocatorI6RecordEEE7destroyB8ue170006IS2_vEEvRS3_PT_, symObjAddr: 0xD8C, symBinAddr: 0x100003EA4, symSize: 0x2C }
  - { offsetInCU: 0x82FE, offset: 0x116C5, size: 0x8, addend: 0x0, symName: __ZNSt3__19allocatorI6RecordE7destroyB8ue170006EPS1_, symObjAddr: 0xDCC, symBinAddr: 0x100003EE4, symSize: 0x28 }
  - { offsetInCU: 0x8330, offset: 0x116F7, size: 0x8, addend: 0x0, symName: __ZN6RecordD1Ev, symObjAddr: 0xDF4, symBinAddr: 0x100003F0C, symSize: 0x2C }
  - { offsetInCU: 0x835A, offset: 0x11721, size: 0x8, addend: 0x0, symName: __ZN6RecordD2Ev, symObjAddr: 0xE20, symBinAddr: 0x100003F38, symSize: 0x38 }
  - { offsetInCU: 0x8384, offset: 0x1174B, size: 0x8, addend: 0x0, symName: __ZNKSt3__16vectorI6RecordNS_9allocatorIS1_EEE31__annotate_contiguous_containerB8ue170006EPKvS6_S6_S6_, symObjAddr: 0xE58, symBinAddr: 0x100003F70, symSize: 0x20 }
  - { offsetInCU: 0x83D9, offset: 0x117A0, size: 0x8, addend: 0x0, symName: __ZNKSt3__16vectorI6RecordNS_9allocatorIS1_EEE4dataB8ue170006Ev, symObjAddr: 0xE78, symBinAddr: 0x100003F90, symSize: 0x28 }
  - { offsetInCU: 0x83FD, offset: 0x117C4, size: 0x8, addend: 0x0, symName: __ZNSt3__19allocatorI6RecordE10deallocateB8ue170006EPS1_m, symObjAddr: 0xEA0, symBinAddr: 0x100003FB8, symSize: 0x44 }
  - { offsetInCU: 0x843D, offset: 0x11804, size: 0x8, addend: 0x0, symName: __ZNSt3__117__compressed_pairIP6RecordNS_9allocatorIS1_EEE6secondB8ue170006Ev, symObjAddr: 0xF60, symBinAddr: 0x100003FFC, symSize: 0x24 }
  - { offsetInCU: 0x8461, offset: 0x11828, size: 0x8, addend: 0x0, symName: __ZNSt3__122__compressed_pair_elemINS_9allocatorI6RecordEELi1ELb1EE5__getB8ue170006Ev, symObjAddr: 0xF84, symBinAddr: 0x100004020, symSize: 0x14 }
  - { offsetInCU: 0x8486, offset: 0x1184D, size: 0x8, addend: 0x0, symName: __ZNKSt3__16vectorI6RecordNS_9allocatorIS1_EEE9__end_capB8ue170006Ev, symObjAddr: 0xF98, symBinAddr: 0x100004034, symSize: 0x28 }
  - { offsetInCU: 0x84AA, offset: 0x11871, size: 0x8, addend: 0x0, symName: __ZNKSt3__117__compressed_pairIP6RecordNS_9allocatorIS1_EEE5firstB8ue170006Ev, symObjAddr: 0xFC0, symBinAddr: 0x10000405C, symSize: 0x24 }
  - { offsetInCU: 0x84CE, offset: 0x11895, size: 0x8, addend: 0x0, symName: __ZNKSt3__122__compressed_pair_elemIP6RecordLi0ELb0EE5__getB8ue170006Ev, symObjAddr: 0xFE4, symBinAddr: 0x100004080, symSize: 0x14 }
  - { offsetInCU: 0x84F3, offset: 0x118BA, size: 0x8, addend: 0x0, symName: __ZNKSt3__16vectorI6RecordNS_9allocatorIS1_EEE17__annotate_shrinkB8ue170006Em, symObjAddr: 0xFF8, symBinAddr: 0x100004094, symSize: 0xD0 }
  - { offsetInCU: 0x8526, offset: 0x118ED, size: 0x8, addend: 0x0, symName: __ZNSt3__16vectorI6RecordNS_9allocatorIS1_EEE9__end_capB8ue170006Ev, symObjAddr: 0x10C8, symBinAddr: 0x100004164, symSize: 0x28 }
  - { offsetInCU: 0x854A, offset: 0x11911, size: 0x8, addend: 0x0, symName: __ZNSt3__16vectorI6RecordNS_9allocatorIS1_EEE22__construct_one_at_endB8ue170006IJRKS1_EEEvDpOT_, symObjAddr: 0x10F0, symBinAddr: 0x10000418C, symSize: 0x90 }
  - { offsetInCU: 0x8596, offset: 0x1195D, size: 0x8, addend: 0x0, symName: __ZNSt3__16vectorI6RecordNS_9allocatorIS1_EEE24__emplace_back_slow_pathIJRKS1_EEEvDpOT_, symObjAddr: 0x1180, symBinAddr: 0x10000421C, symSize: 0xD8 }
  - { offsetInCU: 0x85F6, offset: 0x119BD, size: 0x8, addend: 0x0, symName: __ZNSt3__117__compressed_pairIP6RecordNS_9allocatorIS1_EEE5firstB8ue170006Ev, symObjAddr: 0x1258, symBinAddr: 0x1000042F4, symSize: 0x24 }
  - { offsetInCU: 0x861A, offset: 0x119E1, size: 0x8, addend: 0x0, symName: __ZNSt3__122__compressed_pair_elemIP6RecordLi0ELb0EE5__getB8ue170006Ev, symObjAddr: 0x127C, symBinAddr: 0x100004318, symSize: 0x14 }
  - { offsetInCU: 0x8658, offset: 0x11A1F, size: 0x8, addend: 0x0, symName: __ZNSt3__16vectorI6RecordNS_9allocatorIS1_EEE21_ConstructTransactionC1B8ue170006ERS4_m, symObjAddr: 0x1290, symBinAddr: 0x10000432C, symSize: 0x3C }
  - { offsetInCU: 0x869E, offset: 0x11A65, size: 0x8, addend: 0x0, symName: __ZNSt3__116allocator_traitsINS_9allocatorI6RecordEEE9constructB8ue170006IS2_JRKS2_EvEEvRS3_PT_DpOT0_, symObjAddr: 0x12CC, symBinAddr: 0x100004368, symSize: 0x34 }
  - { offsetInCU: 0x86F6, offset: 0x11ABD, size: 0x8, addend: 0x0, symName: __ZNSt3__16vectorI6RecordNS_9allocatorIS1_EEE21_ConstructTransactionD1B8ue170006Ev, symObjAddr: 0x1300, symBinAddr: 0x10000439C, symSize: 0x2C }
  - { offsetInCU: 0x871E, offset: 0x11AE5, size: 0x8, addend: 0x0, symName: __ZNSt3__16vectorI6RecordNS_9allocatorIS1_EEE21_ConstructTransactionC2B8ue170006ERS4_m, symObjAddr: 0x132C, symBinAddr: 0x1000043C8, symSize: 0x4C }
  - { offsetInCU: 0x8765, offset: 0x11B2C, size: 0x8, addend: 0x0, symName: __ZNSt3__19allocatorI6RecordE9constructB8ue170006IS1_JRKS1_EEEvPT_DpOT0_, symObjAddr: 0x1378, symBinAddr: 0x100004414, symSize: 0x30 }
  - { offsetInCU: 0x87B9, offset: 0x11B80, size: 0x8, addend: 0x0, symName: __ZNSt3__16vectorI6RecordNS_9allocatorIS1_EEE21_ConstructTransactionD2B8ue170006Ev, symObjAddr: 0x13A8, symBinAddr: 0x100004444, symSize: 0x20 }
  - { offsetInCU: 0x87E1, offset: 0x11BA8, size: 0x8, addend: 0x0, symName: __ZNKSt3__16vectorI6RecordNS_9allocatorIS1_EEE11__recommendB8ue170006Em, symObjAddr: 0x13C8, symBinAddr: 0x100004464, symSize: 0xB4 }
  - { offsetInCU: 0x8836, offset: 0x11BFD, size: 0x8, addend: 0x0, symName: __ZNSt3__114__split_bufferI6RecordRNS_9allocatorIS1_EEEC1EmmS4_, symObjAddr: 0x147C, symBinAddr: 0x100004518, symSize: 0x44 }
  - { offsetInCU: 0x888B, offset: 0x11C52, size: 0x8, addend: 0x0, symName: __ZNSt3__114__split_bufferI6RecordRNS_9allocatorIS1_EEED1Ev, symObjAddr: 0x15D0, symBinAddr: 0x10000466C, symSize: 0x2C }
  - { offsetInCU: 0x88B5, offset: 0x11C7C, size: 0x8, addend: 0x0, symName: __ZNKSt3__16vectorI6RecordNS_9allocatorIS1_EEE8max_sizeEv, symObjAddr: 0x15FC, symBinAddr: 0x100004698, symSize: 0x60 }
  - { offsetInCU: 0x88DD, offset: 0x11CA4, size: 0x8, addend: 0x0, symName: __ZNKSt3__16vectorI6RecordNS_9allocatorIS1_EEE20__throw_length_errorB8ue170006Ev, symObjAddr: 0x165C, symBinAddr: 0x1000046F8, symSize: 0x1C }
  - { offsetInCU: 0x890B, offset: 0x11CD2, size: 0x8, addend: 0x0, symName: __ZNSt3__116allocator_traitsINS_9allocatorI6RecordEEE8max_sizeB8ue170006IS3_vEEmRKS3_, symObjAddr: 0x16D0, symBinAddr: 0x100004740, symSize: 0x24 }
  - { offsetInCU: 0x893A, offset: 0x11D01, size: 0x8, addend: 0x0, symName: __ZNKSt3__16vectorI6RecordNS_9allocatorIS1_EEE7__allocB8ue170006Ev, symObjAddr: 0x16F4, symBinAddr: 0x100004764, symSize: 0x28 }
  - { offsetInCU: 0x895E, offset: 0x11D25, size: 0x8, addend: 0x0, symName: __ZNSt3__114numeric_limitsIlE3maxB8ue170006Ev, symObjAddr: 0x171C, symBinAddr: 0x10000478C, symSize: 0x14 }
  - { offsetInCU: 0x897C, offset: 0x11D43, size: 0x8, addend: 0x0, symName: __ZNKSt3__19allocatorI6RecordE8max_sizeB8ue170006Ev, symObjAddr: 0x17B8, symBinAddr: 0x1000047A0, symSize: 0x18 }
  - { offsetInCU: 0x89A1, offset: 0x11D68, size: 0x8, addend: 0x0, symName: __ZNKSt3__117__compressed_pairIP6RecordNS_9allocatorIS1_EEE6secondB8ue170006Ev, symObjAddr: 0x17D0, symBinAddr: 0x1000047B8, symSize: 0x24 }
  - { offsetInCU: 0x89C5, offset: 0x11D8C, size: 0x8, addend: 0x0, symName: __ZNKSt3__122__compressed_pair_elemINS_9allocatorI6RecordEELi1ELb1EE5__getB8ue170006Ev, symObjAddr: 0x17F4, symBinAddr: 0x1000047DC, symSize: 0x14 }
  - { offsetInCU: 0x89EA, offset: 0x11DB1, size: 0x8, addend: 0x0, symName: __ZNSt3__123__libcpp_numeric_limitsIlLb1EE3maxB8ue170006Ev, symObjAddr: 0x1808, symBinAddr: 0x1000047F0, symSize: 0x8 }
  - { offsetInCU: 0x89FE, offset: 0x11DC5, size: 0x8, addend: 0x0, symName: __ZNSt12length_errorC1B8ue170006EPKc, symObjAddr: 0x1874, symBinAddr: 0x10000485C, symSize: 0x34 }
  - { offsetInCU: 0x8A34, offset: 0x11DFB, size: 0x8, addend: 0x0, symName: __ZNSt12length_errorC2B8ue170006EPKc, symObjAddr: 0x18A8, symBinAddr: 0x100004890, symSize: 0x4C }
  - { offsetInCU: 0x8A6A, offset: 0x11E31, size: 0x8, addend: 0x0, symName: __ZNSt3__114__split_bufferI6RecordRNS_9allocatorIS1_EEEC2EmmS4_, symObjAddr: 0x1948, symBinAddr: 0x100004930, symSize: 0xE0 }
  - { offsetInCU: 0x8ADD, offset: 0x11EA4, size: 0x8, addend: 0x0, symName: __ZNSt3__117__compressed_pairIP6RecordRNS_9allocatorIS1_EEEC1B8ue170006IDnS5_EEOT_OT0_, symObjAddr: 0x1A28, symBinAddr: 0x100004A10, symSize: 0x3C }
  - { offsetInCU: 0x8B33, offset: 0x11EFA, size: 0x8, addend: 0x0, symName: __ZNSt3__114__split_bufferI6RecordRNS_9allocatorIS1_EEE7__allocB8ue170006Ev, symObjAddr: 0x1AA4, symBinAddr: 0x100004A8C, symSize: 0x28 }
  - { offsetInCU: 0x8B57, offset: 0x11F1E, size: 0x8, addend: 0x0, symName: __ZNSt3__114__split_bufferI6RecordRNS_9allocatorIS1_EEE9__end_capB8ue170006Ev, symObjAddr: 0x1ACC, symBinAddr: 0x100004AB4, symSize: 0x28 }
  - { offsetInCU: 0x8B7B, offset: 0x11F42, size: 0x8, addend: 0x0, symName: __ZNSt3__117__compressed_pairIP6RecordRNS_9allocatorIS1_EEEC2B8ue170006IDnS5_EEOT_OT0_, symObjAddr: 0x1AF4, symBinAddr: 0x100004ADC, symSize: 0x48 }
  - { offsetInCU: 0x8BD1, offset: 0x11F98, size: 0x8, addend: 0x0, symName: __ZNSt3__122__compressed_pair_elemIRNS_9allocatorI6RecordEELi1ELb0EEC2B8ue170006IS4_vEEOT_, symObjAddr: 0x1B3C, symBinAddr: 0x100004B24, symSize: 0x20 }
  - { offsetInCU: 0x8C13, offset: 0x11FDA, size: 0x8, addend: 0x0, symName: __ZNSt3__19allocatorI6RecordE8allocateB8ue170006Em, symObjAddr: 0x1B5C, symBinAddr: 0x100004B44, symSize: 0x5C }
  - { offsetInCU: 0x8C45, offset: 0x1200C, size: 0x8, addend: 0x0, symName: __ZNSt3__117__compressed_pairIP6RecordRNS_9allocatorIS1_EEE6secondB8ue170006Ev, symObjAddr: 0x1C38, symBinAddr: 0x100004C20, symSize: 0x28 }
  - { offsetInCU: 0x8C69, offset: 0x12030, size: 0x8, addend: 0x0, symName: __ZNSt3__122__compressed_pair_elemIRNS_9allocatorI6RecordEELi1ELb0EE5__getB8ue170006Ev, symObjAddr: 0x1C60, symBinAddr: 0x100004C48, symSize: 0x18 }
  - { offsetInCU: 0x8C8E, offset: 0x12055, size: 0x8, addend: 0x0, symName: __ZNSt3__117__compressed_pairIP6RecordRNS_9allocatorIS1_EEE5firstB8ue170006Ev, symObjAddr: 0x1C78, symBinAddr: 0x100004C60, symSize: 0x24 }
  - { offsetInCU: 0x8CB2, offset: 0x12079, size: 0x8, addend: 0x0, symName: __ZNSt3__116reverse_iteratorIP6RecordEC1B8ue170006ES2_, symObjAddr: 0x1DC8, symBinAddr: 0x100004DB0, symSize: 0x34 }
  - { offsetInCU: 0x8CE8, offset: 0x120AF, size: 0x8, addend: 0x0, symName: __ZNKSt3__116reverse_iteratorIP6RecordE4baseB8ue170006Ev, symObjAddr: 0x1DFC, symBinAddr: 0x100004DE4, symSize: 0x18 }
  - { offsetInCU: 0x8D0D, offset: 0x120D4, size: 0x8, addend: 0x0, symName: __ZNKSt3__16vectorI6RecordNS_9allocatorIS1_EEE14__annotate_newB8ue170006Em, symObjAddr: 0x1E50, symBinAddr: 0x100004E38, symSize: 0xC8 }
  - { offsetInCU: 0x8D40, offset: 0x12107, size: 0x8, addend: 0x0, symName: __ZNSt3__129_AllocatorDestroyRangeReverseINS_9allocatorI6RecordEENS_16reverse_iteratorIPS2_EEEC1B8ue170006ERS3_RS6_S9_, symObjAddr: 0x1F64, symBinAddr: 0x100004F4C, symSize: 0x44 }
  - { offsetInCU: 0x8D95, offset: 0x1215C, size: 0x8, addend: 0x0, symName: __ZNKSt3__116reverse_iteratorIP6RecordEdeB8ue170006Ev, symObjAddr: 0x2014, symBinAddr: 0x100004FFC, symSize: 0x28 }
  - { offsetInCU: 0x8DC8, offset: 0x1218F, size: 0x8, addend: 0x0, symName: __ZNSt3__116reverse_iteratorIP6RecordEppB8ue170006Ev, symObjAddr: 0x203C, symBinAddr: 0x100005024, symSize: 0x20 }
  - { offsetInCU: 0x8DED, offset: 0x121B4, size: 0x8, addend: 0x0, symName: __ZNSt3__128__exception_guard_exceptionsINS_29_AllocatorDestroyRangeReverseINS_9allocatorI6RecordEENS_16reverse_iteratorIPS3_EEEEE10__completeB8ue170006Ev, symObjAddr: 0x205C, symBinAddr: 0x100005044, symSize: 0x1C }
  - { offsetInCU: 0x8E12, offset: 0x121D9, size: 0x8, addend: 0x0, symName: __ZNSt3__128__exception_guard_exceptionsINS_29_AllocatorDestroyRangeReverseINS_9allocatorI6RecordEENS_16reverse_iteratorIPS3_EEEEED1B8ue170006Ev, symObjAddr: 0x2078, symBinAddr: 0x100005060, symSize: 0x2C }
  - { offsetInCU: 0x8E3A, offset: 0x12201, size: 0x8, addend: 0x0, symName: __ZNSt3__128__exception_guard_exceptionsINS_29_AllocatorDestroyRangeReverseINS_9allocatorI6RecordEENS_16reverse_iteratorIPS3_EEEEEC1B8ue170006ES8_, symObjAddr: 0x20A4, symBinAddr: 0x10000508C, symSize: 0x34 }
  - { offsetInCU: 0x8E71, offset: 0x12238, size: 0x8, addend: 0x0, symName: __ZNSt3__128__exception_guard_exceptionsINS_29_AllocatorDestroyRangeReverseINS_9allocatorI6RecordEENS_16reverse_iteratorIPS3_EEEEEC2B8ue170006ES8_, symObjAddr: 0x20D8, symBinAddr: 0x1000050C0, symSize: 0x30 }
  - { offsetInCU: 0x8EA9, offset: 0x12270, size: 0x8, addend: 0x0, symName: __ZNSt3__129_AllocatorDestroyRangeReverseINS_9allocatorI6RecordEENS_16reverse_iteratorIPS2_EEEC2B8ue170006ERS3_RS6_S9_, symObjAddr: 0x2108, symBinAddr: 0x1000050F0, symSize: 0x38 }
  - { offsetInCU: 0x8F04, offset: 0x122CB, size: 0x8, addend: 0x0, symName: __ZNSt3__119__to_address_helperINS_16reverse_iteratorIP6RecordEEvE6__callB8ue170006ERKS4_, symObjAddr: 0x2140, symBinAddr: 0x100005128, symSize: 0x38 }
  - { offsetInCU: 0x8F27, offset: 0x122EE, size: 0x8, addend: 0x0, symName: __ZNKSt3__116reverse_iteratorIP6RecordEptB8ue170006Ev, symObjAddr: 0x2178, symBinAddr: 0x100005160, symSize: 0x24 }
  - { offsetInCU: 0x8F4B, offset: 0x12312, size: 0x8, addend: 0x0, symName: __ZNSt3__128__exception_guard_exceptionsINS_29_AllocatorDestroyRangeReverseINS_9allocatorI6RecordEENS_16reverse_iteratorIPS3_EEEEED2B8ue170006Ev, symObjAddr: 0x219C, symBinAddr: 0x100005184, symSize: 0x50 }
  - { offsetInCU: 0x8F73, offset: 0x1233A, size: 0x8, addend: 0x0, symName: __ZNKSt3__129_AllocatorDestroyRangeReverseINS_9allocatorI6RecordEENS_16reverse_iteratorIPS2_EEEclB8ue170006Ev, symObjAddr: 0x21EC, symBinAddr: 0x1000051D4, symSize: 0xB4 }
  - { offsetInCU: 0x8F98, offset: 0x1235F, size: 0x8, addend: 0x0, symName: __ZNSt3__116reverse_iteratorINS0_IP6RecordEEEC1B8ue170006ES3_, symObjAddr: 0x2310, symBinAddr: 0x1000052F8, symSize: 0x3C }
  - { offsetInCU: 0x8FCE, offset: 0x12395, size: 0x8, addend: 0x0, symName: __ZNSt3__116reverse_iteratorINS0_IP6RecordEEEppB8ue170006Ev, symObjAddr: 0x23D0, symBinAddr: 0x1000053B8, symSize: 0x30 }
  - { offsetInCU: 0x8FF2, offset: 0x123B9, size: 0x8, addend: 0x0, symName: __ZNKSt3__116reverse_iteratorINS0_IP6RecordEEE4baseB8ue170006Ev, symObjAddr: 0x2400, symBinAddr: 0x1000053E8, symSize: 0x24 }
  - { offsetInCU: 0x901C, offset: 0x123E3, size: 0x8, addend: 0x0, symName: __ZNSt3__119__to_address_helperINS_16reverse_iteratorINS1_IP6RecordEEEEvE6__callB8ue170006ERKS5_, symObjAddr: 0x2424, symBinAddr: 0x10000540C, symSize: 0x38 }
  - { offsetInCU: 0x903F, offset: 0x12406, size: 0x8, addend: 0x0, symName: __ZNKSt3__116reverse_iteratorINS0_IP6RecordEEEptB8ue170006Ev, symObjAddr: 0x245C, symBinAddr: 0x100005444, symSize: 0x24 }
  - { offsetInCU: 0x9063, offset: 0x1242A, size: 0x8, addend: 0x0, symName: __ZNKSt3__116reverse_iteratorINS0_IP6RecordEEEdeB8ue170006Ev, symObjAddr: 0x2480, symBinAddr: 0x100005468, symSize: 0x34 }
  - { offsetInCU: 0x9095, offset: 0x1245C, size: 0x8, addend: 0x0, symName: __ZNSt3__116reverse_iteratorIP6RecordEmmB8ue170006Ev, symObjAddr: 0x24B4, symBinAddr: 0x10000549C, symSize: 0x20 }
  - { offsetInCU: 0x90BA, offset: 0x12481, size: 0x8, addend: 0x0, symName: __ZNSt3__116reverse_iteratorINS0_IP6RecordEEEC2B8ue170006ES3_, symObjAddr: 0x24D4, symBinAddr: 0x1000054BC, symSize: 0x2C }
  - { offsetInCU: 0x90F1, offset: 0x124B8, size: 0x8, addend: 0x0, symName: __ZNSt3__116reverse_iteratorIP6RecordEC2B8ue170006ES2_, symObjAddr: 0x2500, symBinAddr: 0x1000054E8, symSize: 0x28 }
  - { offsetInCU: 0x9128, offset: 0x124EF, size: 0x8, addend: 0x0, symName: __ZNSt3__114__split_bufferI6RecordRNS_9allocatorIS1_EEED2Ev, symObjAddr: 0x2528, symBinAddr: 0x100005510, symSize: 0x8C }
  - { offsetInCU: 0x9153, offset: 0x1251A, size: 0x8, addend: 0x0, symName: __ZNSt3__114__split_bufferI6RecordRNS_9allocatorIS1_EEE5clearB8ue170006Ev, symObjAddr: 0x25B4, symBinAddr: 0x10000559C, symSize: 0x28 }
  - { offsetInCU: 0x9177, offset: 0x1253E, size: 0x8, addend: 0x0, symName: __ZNKSt3__114__split_bufferI6RecordRNS_9allocatorIS1_EEE8capacityB8ue170006Ev, symObjAddr: 0x25DC, symBinAddr: 0x1000055C4, symSize: 0x40 }
  - { offsetInCU: 0x919B, offset: 0x12562, size: 0x8, addend: 0x0, symName: __ZNSt3__114__split_bufferI6RecordRNS_9allocatorIS1_EEE17__destruct_at_endB8ue170006EPS1_, symObjAddr: 0x261C, symBinAddr: 0x100005604, symSize: 0x2C }
  - { offsetInCU: 0x91CC, offset: 0x12593, size: 0x8, addend: 0x0, symName: __ZNSt3__114__split_bufferI6RecordRNS_9allocatorIS1_EEE17__destruct_at_endB8ue170006EPS1_NS_17integral_constantIbLb0EEE, symObjAddr: 0x2648, symBinAddr: 0x100005630, symSize: 0x80 }
  - { offsetInCU: 0x920D, offset: 0x125D4, size: 0x8, addend: 0x0, symName: __ZNKSt3__114__split_bufferI6RecordRNS_9allocatorIS1_EEE9__end_capB8ue170006Ev, symObjAddr: 0x26C8, symBinAddr: 0x1000056B0, symSize: 0x28 }
  - { offsetInCU: 0x9231, offset: 0x125F8, size: 0x8, addend: 0x0, symName: __ZNKSt3__117__compressed_pairIP6RecordRNS_9allocatorIS1_EEE5firstB8ue170006Ev, symObjAddr: 0x26F0, symBinAddr: 0x1000056D8, symSize: 0x24 }
  - { offsetInCU: 0x9254, offset: 0x1261B, size: 0x8, addend: 0x0, symName: __ZNSt3__16vectorI6RecordNS_9allocatorIS1_EEE21__push_back_slow_pathIRKS1_EEvOT_, symObjAddr: 0x31F4, symBinAddr: 0x1000056FC, symSize: 0xD8 }
  - { offsetInCU: 0x92B2, offset: 0x12679, size: 0x8, addend: 0x0, symName: __ZNKSt3__16vectorI6RecordNS_9allocatorIS1_EEE11__make_iterB8ue170006EPKS1_, symObjAddr: 0x32CC, symBinAddr: 0x1000057D4, symSize: 0x30 }
  - { offsetInCU: 0x92E5, offset: 0x126AC, size: 0x8, addend: 0x0, symName: __ZNSt3__111__wrap_iterIPK6RecordEC1B8ue170006ES3_, symObjAddr: 0x32FC, symBinAddr: 0x100005804, symSize: 0x34 }
  - { offsetInCU: 0x931B, offset: 0x126E2, size: 0x8, addend: 0x0, symName: __ZNSt3__111__wrap_iterIPK6RecordEC2B8ue170006ES3_, symObjAddr: 0x3330, symBinAddr: 0x100005838, symSize: 0x20 }
  - { offsetInCU: 0x9352, offset: 0x12719, size: 0x8, addend: 0x0, symName: __ZNSt3__16vectorI6RecordNS_9allocatorIS1_EEE11__make_iterB8ue170006EPS1_, symObjAddr: 0x3350, symBinAddr: 0x100005858, symSize: 0x30 }
  - { offsetInCU: 0x9385, offset: 0x1274C, size: 0x8, addend: 0x0, symName: __ZNSt3__111__wrap_iterIP6RecordEC1B8ue170006ES2_, symObjAddr: 0x3380, symBinAddr: 0x100005888, symSize: 0x34 }
  - { offsetInCU: 0x93BB, offset: 0x12782, size: 0x8, addend: 0x0, symName: __ZNSt3__111__wrap_iterIP6RecordEC2B8ue170006ES2_, symObjAddr: 0x33B4, symBinAddr: 0x1000058BC, symSize: 0x20 }
  - { offsetInCU: 0x6FF6, offset: 0x1983F, size: 0x8, addend: 0x0, symName: __ZNSt3__1neB8ue170006IPNS_10shared_ptrI4PageEEEEbRKNS_11__wrap_iterIT_EES9_, symObjAddr: 0x17C, symBinAddr: 0x100005A58, symSize: 0x34 }
  - { offsetInCU: 0x7039, offset: 0x19882, size: 0x8, addend: 0x0, symName: __ZNSt3__111make_sharedB8ue170006I4PageJRS1_EvEENS_10shared_ptrIT_EEDpOT0_, symObjAddr: 0x488, symBinAddr: 0x100005C8C, symSize: 0x40 }
  - { offsetInCU: 0x7E22, offset: 0x1A66B, size: 0x8, addend: 0x0, symName: __ZNSt3__111make_sharedB8ue170006I4PageJEvEENS_10shared_ptrIT_EEDpOT0_, symObjAddr: 0xC84, symBinAddr: 0x10000645C, symSize: 0x38 }
  - { offsetInCU: 0x7E51, offset: 0x1A69A, size: 0x8, addend: 0x0, symName: __ZNSt3__17getlineB8ue170006IcNS_11char_traitsIcEENS_9allocatorIcEEEERNS_13basic_istreamIT_T0_EES9_RNS_12basic_stringIS6_S7_T1_EE, symObjAddr: 0xCBC, symBinAddr: 0x100006494, symSize: 0x5C }
  - { offsetInCU: 0x7EA9, offset: 0x1A6F2, size: 0x8, addend: 0x0, symName: __ZNSt3__19make_pairB8ue170006IRjS1_EENS_4pairINS_18__unwrap_ref_decayIT_E4typeENS3_IT0_E4typeEEEOS4_OS7_, symObjAddr: 0xE4C, symBinAddr: 0x1000065F8, symSize: 0x34 }
  - { offsetInCU: 0x7F03, offset: 0x1A74C, size: 0x8, addend: 0x0, symName: __ZNSt3__1eqB8ue170006IPNS_10shared_ptrI4PageEEEEbRKNS_11__wrap_iterIT_EES9_, symObjAddr: 0xEC0, symBinAddr: 0x10000666C, symSize: 0x48 }
  - { offsetInCU: 0x7F46, offset: 0x1A78F, size: 0x8, addend: 0x0, symName: __ZNSt3__112__to_addressB8ue170006INS_10shared_ptrI4PageEEEEPT_S5_, symObjAddr: 0x16B8, symBinAddr: 0x100006C74, symSize: 0x14 }
  - { offsetInCU: 0x7F7B, offset: 0x1A7C4, size: 0x8, addend: 0x0, symName: __ZNSt3__115allocate_sharedB8ue170006I4PageNS_9allocatorIS1_EEJRS1_EvEENS_10shared_ptrIT_EERKT0_DpOT1_, symObjAddr: 0x22FC, symBinAddr: 0x100006E54, symSize: 0x98 }
  - { offsetInCU: 0x8328, offset: 0x1AB71, size: 0x8, addend: 0x0, symName: __ZNSt3__134__libcpp_atomic_refcount_decrementB8ue170006IlEET_RS1_, symObjAddr: 0x337C, symBinAddr: 0x100007928, symSize: 0x30 }
  - { offsetInCU: 0x835D, offset: 0x1ABA6, size: 0x8, addend: 0x0, symName: __ZNSt3__119__allocate_at_leastB8ue170006INS_9allocatorINS_10shared_ptrI4PageEEEEEENS_19__allocation_resultINS_16allocator_traitsIT_E7pointerEEERS8_m, symObjAddr: 0x3DA4, symBinAddr: 0x10000811C, symSize: 0x40 }
  - { offsetInCU: 0x83A0, offset: 0x1ABE9, size: 0x8, addend: 0x0, symName: __ZNSt3__142__uninitialized_allocator_move_if_noexceptB8ue170006INS_9allocatorINS_10shared_ptrI4PageEEEENS_16reverse_iteratorIPS4_EES8_S8_EET2_RT_T0_T1_S9_, symObjAddr: 0x3F58, symBinAddr: 0x1000082D0, symSize: 0x12C }
  - { offsetInCU: 0x8440, offset: 0x1AC89, size: 0x8, addend: 0x0, symName: __ZNSt3__14swapB8ue170006IPNS_10shared_ptrI4PageEEEENS_9enable_ifIXaasr21is_move_constructibleIT_EE5valuesr18is_move_assignableIS6_EE5valueEvE4typeERS6_S9_, symObjAddr: 0x40D0, symBinAddr: 0x100008448, symSize: 0x3C }
  - { offsetInCU: 0x8491, offset: 0x1ACDA, size: 0x8, addend: 0x0, symName: __ZNSt3__122__make_exception_guardB8ue170006INS_29_AllocatorDestroyRangeReverseINS_9allocatorINS_10shared_ptrI4PageEEEENS_16reverse_iteratorIPS5_EEEEEENS_28__exception_guard_exceptionsIT_EESC_, symObjAddr: 0x41B8, symBinAddr: 0x100008530, symSize: 0x4C }
  - { offsetInCU: 0x84C7, offset: 0x1AD10, size: 0x8, addend: 0x0, symName: __ZNSt3__1neB8ue170006IPNS_10shared_ptrI4PageEES4_EEbRKNS_16reverse_iteratorIT_EERKNS5_IT0_EE, symObjAddr: 0x4248, symBinAddr: 0x1000085C0, symSize: 0x48 }
  - { offsetInCU: 0x8513, offset: 0x1AD5C, size: 0x8, addend: 0x0, symName: __ZNSt3__112__to_addressB8ue170006INS_16reverse_iteratorIPNS_10shared_ptrI4PageEEEEvEEu7__decayIDTclsr19__to_address_helperIT_EE6__callclsr3stdE7declvalIRKS7_EEEEES9_, symObjAddr: 0x4290, symBinAddr: 0x100008608, symSize: 0x24 }
  - { offsetInCU: 0x8574, offset: 0x1ADBD, size: 0x8, addend: 0x0, symName: __ZNSt3__119__allocator_destroyB8ue170006INS_9allocatorINS_10shared_ptrI4PageEEEENS_16reverse_iteratorINS6_IPS4_EEEES9_EEvRT_T0_T1_, symObjAddr: 0x4540, symBinAddr: 0x1000088B8, symSize: 0x70 }
  - { offsetInCU: 0x85D9, offset: 0x1AE22, size: 0x8, addend: 0x0, symName: __ZNSt3__1neB8ue170006INS_16reverse_iteratorIPNS_10shared_ptrI4PageEEEES6_EEbRKNS1_IT_EERKNS1_IT0_EE, symObjAddr: 0x45EC, symBinAddr: 0x100008964, symSize: 0x60 }
  - { offsetInCU: 0x8625, offset: 0x1AE6E, size: 0x8, addend: 0x0, symName: __ZNSt3__112__to_addressB8ue170006INS_16reverse_iteratorINS1_IPNS_10shared_ptrI4PageEEEEEEvEEu7__decayIDTclsr19__to_address_helperIT_EE6__callclsr3stdE7declvalIRKS8_EEEEESA_, symObjAddr: 0x464C, symBinAddr: 0x1000089C4, symSize: 0x24 }
  - { offsetInCU: 0x8686, offset: 0x1AECF, size: 0x8, addend: 0x0, symName: __ZNSt3__115allocate_sharedB8ue170006I4PageNS_9allocatorIS1_EEJEvEENS_10shared_ptrIT_EERKT0_DpOT1_, symObjAddr: 0x4B84, symBinAddr: 0x100008EFC, symSize: 0x90 }
  - { offsetInCU: 0x86EB, offset: 0x1AF34, size: 0x8, addend: 0x0, symName: __ZNSt3__17getlineB8ue170006IcNS_11char_traitsIcEENS_9allocatorIcEEEERNS_13basic_istreamIT_T0_EES9_RNS_12basic_stringIS6_S7_T1_EES6_, symObjAddr: 0x4CF0, symBinAddr: 0x100009068, symSize: 0x238 }
  - { offsetInCU: 0x931D, offset: 0x1BB66, size: 0x8, addend: 0x0, symName: __ZNSt3__16vectorINS_10shared_ptrI4PageEENS_9allocatorIS3_EEE26__swap_out_circular_bufferERNS_14__split_bufferIS3_RS5_EE, symObjAddr: 0x3810, symBinAddr: 0x100007DBC, symSize: 0x110 }
  - { offsetInCU: 0xB1F6, offset: 0x1DA3F, size: 0x8, addend: 0x0, symName: __ZN4DiskC2Ev, symObjAddr: 0x0, symBinAddr: 0x1000058DC, symSize: 0x2C }
  - { offsetInCU: 0xB220, offset: 0x1DA69, size: 0x8, addend: 0x0, symName: __ZNSt3__16vectorINS_10shared_ptrI4PageEENS_9allocatorIS3_EEEC1B8ue170006Ev, symObjAddr: 0x2C, symBinAddr: 0x100005908, symSize: 0x2C }
  - { offsetInCU: 0xB248, offset: 0x1DA91, size: 0x8, addend: 0x0, symName: __ZN4DiskC1Ev, symObjAddr: 0x58, symBinAddr: 0x100005934, symSize: 0x2C }
  - { offsetInCU: 0xB272, offset: 0x1DABB, size: 0x8, addend: 0x0, symName: __ZN4DiskD2Ev, symObjAddr: 0x84, symBinAddr: 0x100005960, symSize: 0x98 }
  - { offsetInCU: 0xB2DD, offset: 0x1DB26, size: 0x8, addend: 0x0, symName: __ZNSt3__16vectorINS_10shared_ptrI4PageEENS_9allocatorIS3_EEE5beginB8ue170006Ev, symObjAddr: 0x11C, symBinAddr: 0x1000059F8, symSize: 0x30 }
  - { offsetInCU: 0xB304, offset: 0x1DB4D, size: 0x8, addend: 0x0, symName: __ZNSt3__16vectorINS_10shared_ptrI4PageEENS_9allocatorIS3_EEE3endB8ue170006Ev, symObjAddr: 0x14C, symBinAddr: 0x100005A28, symSize: 0x30 }
  - { offsetInCU: 0xB32B, offset: 0x1DB74, size: 0x8, addend: 0x0, symName: __ZNKSt3__111__wrap_iterIPNS_10shared_ptrI4PageEEEdeB8ue170006Ev, symObjAddr: 0x1B0, symBinAddr: 0x100005A8C, symSize: 0x18 }
  - { offsetInCU: 0xB350, offset: 0x1DB99, size: 0x8, addend: 0x0, symName: __ZNKSt3__110shared_ptrI4PageEptB8ue170006Ev, symObjAddr: 0x1C8, symBinAddr: 0x100005AA4, symSize: 0x18 }
  - { offsetInCU: 0xB375, offset: 0x1DBBE, size: 0x8, addend: 0x0, symName: __ZNSt3__111__wrap_iterIPNS_10shared_ptrI4PageEEEppB8ue170006Ev, symObjAddr: 0x1EC, symBinAddr: 0x100005ABC, symSize: 0x20 }
  - { offsetInCU: 0xB39A, offset: 0x1DBE3, size: 0x8, addend: 0x0, symName: __ZNSt3__16vectorINS_10shared_ptrI4PageEENS_9allocatorIS3_EEED1B8ue170006Ev, symObjAddr: 0x20C, symBinAddr: 0x100005ADC, symSize: 0x2C }
  - { offsetInCU: 0xB3C2, offset: 0x1DC0B, size: 0x8, addend: 0x0, symName: __ZN4DiskD1Ev, symObjAddr: 0x238, symBinAddr: 0x100005B08, symSize: 0x2C }
  - { offsetInCU: 0xB3EC, offset: 0x1DC35, size: 0x8, addend: 0x0, symName: __ZN4Disk9diskWriteERNSt3__110shared_ptrI4PageEE, symObjAddr: 0x264, symBinAddr: 0x100005B34, symSize: 0xC4 }
  - { offsetInCU: 0xB42F, offset: 0x1DC78, size: 0x8, addend: 0x0, symName: __ZNKSt3__16vectorINS_10shared_ptrI4PageEENS_9allocatorIS3_EEE4sizeB8ue170006Ev, symObjAddr: 0x328, symBinAddr: 0x100005BF8, symSize: 0x28 }
  - { offsetInCU: 0xB454, offset: 0x1DC9D, size: 0x8, addend: 0x0, symName: __ZNSt3__16vectorINS_10shared_ptrI4PageEENS_9allocatorIS3_EEE9push_backB8ue170006EOS3_, symObjAddr: 0x41C, symBinAddr: 0x100005C20, symSize: 0x6C }
  - { offsetInCU: 0xB48A, offset: 0x1DCD3, size: 0x8, addend: 0x0, symName: __ZNKSt3__110shared_ptrI4PageEdeB8ue170006Ev, symObjAddr: 0x4C8, symBinAddr: 0x100005CCC, symSize: 0x18 }
  - { offsetInCU: 0xB4AF, offset: 0x1DCF8, size: 0x8, addend: 0x0, symName: __ZNSt3__110shared_ptrI4PageED1B8ue170006Ev, symObjAddr: 0x4E0, symBinAddr: 0x100005CE4, symSize: 0x2C }
  - { offsetInCU: 0xB4D7, offset: 0x1DD20, size: 0x8, addend: 0x0, symName: __ZN4Disk8diskReadEj, symObjAddr: 0x50C, symBinAddr: 0x100005D10, symSize: 0x84 }
  - { offsetInCU: 0xB50C, offset: 0x1DD55, size: 0x8, addend: 0x0, symName: __ZNSt3__16vectorINS_10shared_ptrI4PageEENS_9allocatorIS3_EEEixB8ue170006Em, symObjAddr: 0x590, symBinAddr: 0x100005D94, symSize: 0x24 }
  - { offsetInCU: 0xB542, offset: 0x1DD8B, size: 0x8, addend: 0x0, symName: __ZNKSt3__110shared_ptrI4PageE3getB8ue170006Ev, symObjAddr: 0x5B4, symBinAddr: 0x100005DB8, symSize: 0x18 }
  - { offsetInCU: 0xB567, offset: 0x1DDB0, size: 0x8, addend: 0x0, symName: __ZN4Disk5printEj, symObjAddr: 0x5CC, symBinAddr: 0x100005DD0, symSize: 0x38 }
  - { offsetInCU: 0xB59C, offset: 0x1DDE5, size: 0x8, addend: 0x0, symName: __ZN4Disk5printEv, symObjAddr: 0x604, symBinAddr: 0x100005E08, symSize: 0xC4 }
  - { offsetInCU: 0xB5E0, offset: 0x1DE29, size: 0x8, addend: 0x0, symName: __ZNKSt3__110shared_ptrI4PageEcvbB8ue170006Ev, symObjAddr: 0x6C8, symBinAddr: 0x100005ECC, symSize: 0x30 }
  - { offsetInCU: 0xB604, offset: 0x1DE4D, size: 0x8, addend: 0x0, symName: __ZN4Disk9read_dataEPKc, symObjAddr: 0x6F8, symBinAddr: 0x100005EFC, symSize: 0x3C0 }
  - { offsetInCU: 0xB6BE, offset: 0x1DF07, size: 0x8, addend: 0x0, symName: __ZNSt3__112basic_stringIcNS_11char_traitsIcEENS_9allocatorIcEEEC1B8ue170006ILi0EEEPKc, symObjAddr: 0xAB8, symBinAddr: 0x1000062BC, symSize: 0x34 }
  - { offsetInCU: 0xB81C, offset: 0x1E065, size: 0x8, addend: 0x0, symName: __ZNSt3__114basic_ifstreamIcNS_11char_traitsIcEEEC1ERKNS_12basic_stringIcS2_NS_9allocatorIcEEEEj, symObjAddr: 0xAEC, symBinAddr: 0x1000062F0, symSize: 0x16C }
  - { offsetInCU: 0xB865, offset: 0x1E0AE, size: 0x8, addend: 0x0, symName: __ZNKSt3__19basic_iosIcNS_11char_traitsIcEEEcvbB8ue170006Ev, symObjAddr: 0xD18, symBinAddr: 0x1000064F0, symSize: 0x2C }
  - { offsetInCU: 0xB889, offset: 0x1E0D2, size: 0x8, addend: 0x0, symName: __ZNSt3__16vectorINS_10shared_ptrI4PageEENS_9allocatorIS3_EEE4backB8ue170006Ev, symObjAddr: 0xD44, symBinAddr: 0x10000651C, symSize: 0x1C }
  - { offsetInCU: 0xB8AE, offset: 0x1E0F7, size: 0x8, addend: 0x0, symName: __ZNKSt3__112basic_stringIcNS_11char_traitsIcEENS_9allocatorIcEEE6substrB8ue170006Emm, symObjAddr: 0xD60, symBinAddr: 0x100006538, symSize: 0x68 }
  - { offsetInCU: 0xB8F0, offset: 0x1E139, size: 0x8, addend: 0x0, symName: __ZNSt3__114basic_ifstreamIcNS_11char_traitsIcEEE5closeEv, symObjAddr: 0xDF4, symBinAddr: 0x1000065A0, symSize: 0x58 }
  - { offsetInCU: 0xB91C, offset: 0x1E165, size: 0x8, addend: 0x0, symName: __ZNSt3__114basic_ifstreamIcNS_11char_traitsIcEEED1Ev, symObjAddr: 0xE80, symBinAddr: 0x10000662C, symSize: 0x40 }
  - { offsetInCU: 0xB948, offset: 0x1E191, size: 0x8, addend: 0x0, symName: __ZNKSt3__111__wrap_iterIPNS_10shared_ptrI4PageEEE4baseB8ue170006Ev, symObjAddr: 0xF08, symBinAddr: 0x1000066B4, symSize: 0x18 }
  - { offsetInCU: 0xB96D, offset: 0x1E1B6, size: 0x8, addend: 0x0, symName: __ZNSt3__14pairIjjEC1B8ue170006IRjS3_LPv0EEEOT_OT0_, symObjAddr: 0xF58, symBinAddr: 0x1000066CC, symSize: 0x3C }
  - { offsetInCU: 0xB9C9, offset: 0x1E212, size: 0x8, addend: 0x0, symName: __ZNSt3__14pairIjjEC2B8ue170006IRjS3_LPv0EEEOT_OT0_, symObjAddr: 0xF94, symBinAddr: 0x100006708, symSize: 0x34 }
  - { offsetInCU: 0xBA26, offset: 0x1E26F, size: 0x8, addend: 0x0, symName: __ZNSt3__114basic_ifstreamIcNS_11char_traitsIcEEED2Ev, symObjAddr: 0xFC8, symBinAddr: 0x10000673C, symSize: 0x64 }
  - { offsetInCU: 0xBA5E, offset: 0x1E2A7, size: 0x8, addend: 0x0, symName: __ZTv0_n24_NSt3__114basic_ifstreamIcNS_11char_traitsIcEEED1Ev, symObjAddr: 0x102C, symBinAddr: 0x1000067A0, symSize: 0x28 }
  - { offsetInCU: 0xBA7A, offset: 0x1E2C3, size: 0x8, addend: 0x0, symName: __ZNSt3__16vectorINS_10shared_ptrI4PageEENS_9allocatorIS3_EEEC2B8ue170006Ev, symObjAddr: 0x120C, symBinAddr: 0x1000067C8, symSize: 0x4C }
  - { offsetInCU: 0xBAA7, offset: 0x1E2F0, size: 0x8, addend: 0x0, symName: __ZNSt3__117__compressed_pairIPNS_10shared_ptrI4PageEENS_9allocatorIS3_EEEC1B8ue170006IDnNS_18__default_init_tagEEEOT_OT0_, symObjAddr: 0x1258, symBinAddr: 0x100006814, symSize: 0x3C }
  - { offsetInCU: 0xBAFD, offset: 0x1E346, size: 0x8, addend: 0x0, symName: __ZNSt3__117__compressed_pairIPNS_10shared_ptrI4PageEENS_9allocatorIS3_EEEC2B8ue170006IDnNS_18__default_init_tagEEEOT_OT0_, symObjAddr: 0x1294, symBinAddr: 0x100006850, symSize: 0x40 }
  - { offsetInCU: 0xBB53, offset: 0x1E39C, size: 0x8, addend: 0x0, symName: __ZNSt3__122__compressed_pair_elemIPNS_10shared_ptrI4PageEELi0ELb0EEC2B8ue170006IDnvEEOT_, symObjAddr: 0x12D4, symBinAddr: 0x100006890, symSize: 0x1C }
  - { offsetInCU: 0xBB95, offset: 0x1E3DE, size: 0x8, addend: 0x0, symName: __ZNSt3__122__compressed_pair_elemINS_9allocatorINS_10shared_ptrI4PageEEEELi1ELb1EEC2B8ue170006ENS_18__default_init_tagE, symObjAddr: 0x12F0, symBinAddr: 0x1000068AC, symSize: 0x2C }
  - { offsetInCU: 0xBBC8, offset: 0x1E411, size: 0x8, addend: 0x0, symName: __ZNSt3__19allocatorINS_10shared_ptrI4PageEEEC2B8ue170006Ev, symObjAddr: 0x131C, symBinAddr: 0x1000068D8, symSize: 0x2C }
  - { offsetInCU: 0xBBF0, offset: 0x1E439, size: 0x8, addend: 0x0, symName: __ZNSt3__116__non_trivial_ifILb1ENS_9allocatorINS_10shared_ptrI4PageEEEEEC2B8ue170006Ev, symObjAddr: 0x1348, symBinAddr: 0x100006904, symSize: 0x14 }
  - { offsetInCU: 0xBC19, offset: 0x1E462, size: 0x8, addend: 0x0, symName: __ZNSt3__16vectorINS_10shared_ptrI4PageEENS_9allocatorIS3_EEED2B8ue170006Ev, symObjAddr: 0x135C, symBinAddr: 0x100006918, symSize: 0x44 }
  - { offsetInCU: 0xBC41, offset: 0x1E48A, size: 0x8, addend: 0x0, symName: __ZNSt3__16vectorINS_10shared_ptrI4PageEENS_9allocatorIS3_EEE16__destroy_vectorC1B8ue170006ERS6_, symObjAddr: 0x13A0, symBinAddr: 0x10000695C, symSize: 0x34 }
  - { offsetInCU: 0xBC78, offset: 0x1E4C1, size: 0x8, addend: 0x0, symName: __ZNSt3__16vectorINS_10shared_ptrI4PageEENS_9allocatorIS3_EEE16__destroy_vectorclB8ue170006Ev, symObjAddr: 0x13D4, symBinAddr: 0x100006990, symSize: 0x90 }
  - { offsetInCU: 0xBC9C, offset: 0x1E4E5, size: 0x8, addend: 0x0, symName: __ZNSt3__16vectorINS_10shared_ptrI4PageEENS_9allocatorIS3_EEE16__destroy_vectorC2B8ue170006ERS6_, symObjAddr: 0x1464, symBinAddr: 0x100006A20, symSize: 0x20 }
  - { offsetInCU: 0xBCD4, offset: 0x1E51D, size: 0x8, addend: 0x0, symName: __ZNSt3__16vectorINS_10shared_ptrI4PageEENS_9allocatorIS3_EEE7__clearB8ue170006Ev, symObjAddr: 0x1484, symBinAddr: 0x100006A40, symSize: 0x28 }
  - { offsetInCU: 0xBCF8, offset: 0x1E541, size: 0x8, addend: 0x0, symName: __ZNKSt3__16vectorINS_10shared_ptrI4PageEENS_9allocatorIS3_EEE17__annotate_deleteB8ue170006Ev, symObjAddr: 0x14AC, symBinAddr: 0x100006A68, symSize: 0xB8 }
  - { offsetInCU: 0xBD1C, offset: 0x1E565, size: 0x8, addend: 0x0, symName: __ZNSt3__116allocator_traitsINS_9allocatorINS_10shared_ptrI4PageEEEEE10deallocateB8ue170006ERS5_PS4_m, symObjAddr: 0x1564, symBinAddr: 0x100006B20, symSize: 0x34 }
  - { offsetInCU: 0xBD5E, offset: 0x1E5A7, size: 0x8, addend: 0x0, symName: __ZNSt3__16vectorINS_10shared_ptrI4PageEENS_9allocatorIS3_EEE7__allocB8ue170006Ev, symObjAddr: 0x1598, symBinAddr: 0x100006B54, symSize: 0x28 }
  - { offsetInCU: 0xBD82, offset: 0x1E5CB, size: 0x8, addend: 0x0, symName: __ZNKSt3__16vectorINS_10shared_ptrI4PageEENS_9allocatorIS3_EEE8capacityB8ue170006Ev, symObjAddr: 0x15C0, symBinAddr: 0x100006B7C, symSize: 0x40 }
  - { offsetInCU: 0xBDA6, offset: 0x1E5EF, size: 0x8, addend: 0x0, symName: __ZNSt3__16vectorINS_10shared_ptrI4PageEENS_9allocatorIS3_EEE22__base_destruct_at_endB8ue170006EPS3_, symObjAddr: 0x1600, symBinAddr: 0x100006BBC, symSize: 0x8C }
  - { offsetInCU: 0xBDE8, offset: 0x1E631, size: 0x8, addend: 0x0, symName: __ZNSt3__116allocator_traitsINS_9allocatorINS_10shared_ptrI4PageEEEEE7destroyB8ue170006IS4_vEEvRS5_PT_, symObjAddr: 0x168C, symBinAddr: 0x100006C48, symSize: 0x2C }
  - { offsetInCU: 0xBE26, offset: 0x1E66F, size: 0x8, addend: 0x0, symName: __ZNSt3__19allocatorINS_10shared_ptrI4PageEEE7destroyB8ue170006EPS3_, symObjAddr: 0x16CC, symBinAddr: 0x100006C88, symSize: 0x28 }
  - { offsetInCU: 0xBE58, offset: 0x1E6A1, size: 0x8, addend: 0x0, symName: __ZNKSt3__16vectorINS_10shared_ptrI4PageEENS_9allocatorIS3_EEE31__annotate_contiguous_containerB8ue170006EPKvS8_S8_S8_, symObjAddr: 0x16F4, symBinAddr: 0x100006CB0, symSize: 0x20 }
  - { offsetInCU: 0xBEAD, offset: 0x1E6F6, size: 0x8, addend: 0x0, symName: __ZNKSt3__16vectorINS_10shared_ptrI4PageEENS_9allocatorIS3_EEE4dataB8ue170006Ev, symObjAddr: 0x1714, symBinAddr: 0x100006CD0, symSize: 0x28 }
  - { offsetInCU: 0xBED1, offset: 0x1E71A, size: 0x8, addend: 0x0, symName: __ZNSt3__19allocatorINS_10shared_ptrI4PageEEE10deallocateB8ue170006EPS3_m, symObjAddr: 0x173C, symBinAddr: 0x100006CF8, symSize: 0x40 }
  - { offsetInCU: 0xBF11, offset: 0x1E75A, size: 0x8, addend: 0x0, symName: __ZNSt3__117__compressed_pairIPNS_10shared_ptrI4PageEENS_9allocatorIS3_EEE6secondB8ue170006Ev, symObjAddr: 0x17F8, symBinAddr: 0x100006D38, symSize: 0x24 }
  - { offsetInCU: 0xBF35, offset: 0x1E77E, size: 0x8, addend: 0x0, symName: __ZNSt3__122__compressed_pair_elemINS_9allocatorINS_10shared_ptrI4PageEEEELi1ELb1EE5__getB8ue170006Ev, symObjAddr: 0x181C, symBinAddr: 0x100006D5C, symSize: 0x14 }
  - { offsetInCU: 0xBF5A, offset: 0x1E7A3, size: 0x8, addend: 0x0, symName: __ZNKSt3__16vectorINS_10shared_ptrI4PageEENS_9allocatorIS3_EEE9__end_capB8ue170006Ev, symObjAddr: 0x1830, symBinAddr: 0x100006D70, symSize: 0x28 }
  - { offsetInCU: 0xBF7E, offset: 0x1E7C7, size: 0x8, addend: 0x0, symName: __ZNKSt3__117__compressed_pairIPNS_10shared_ptrI4PageEENS_9allocatorIS3_EEE5firstB8ue170006Ev, symObjAddr: 0x1858, symBinAddr: 0x100006D98, symSize: 0x24 }
  - { offsetInCU: 0xBFA2, offset: 0x1E7EB, size: 0x8, addend: 0x0, symName: __ZNKSt3__122__compressed_pair_elemIPNS_10shared_ptrI4PageEELi0ELb0EE5__getB8ue170006Ev, symObjAddr: 0x187C, symBinAddr: 0x100006DBC, symSize: 0x14 }
  - { offsetInCU: 0xBFC7, offset: 0x1E810, size: 0x8, addend: 0x0, symName: __ZNSt3__16vectorINS_10shared_ptrI4PageEENS_9allocatorIS3_EEE11__make_iterB8ue170006EPS3_, symObjAddr: 0x1890, symBinAddr: 0x100006DD0, symSize: 0x30 }
  - { offsetInCU: 0xBFFA, offset: 0x1E843, size: 0x8, addend: 0x0, symName: __ZNSt3__111__wrap_iterIPNS_10shared_ptrI4PageEEEC1B8ue170006ES4_, symObjAddr: 0x18C0, symBinAddr: 0x100006E00, symSize: 0x34 }
  - { offsetInCU: 0xC030, offset: 0x1E879, size: 0x8, addend: 0x0, symName: __ZNSt3__111__wrap_iterIPNS_10shared_ptrI4PageEEEC2B8ue170006ES4_, symObjAddr: 0x18F4, symBinAddr: 0x100006E34, symSize: 0x20 }
  - { offsetInCU: 0xC067, offset: 0x1E8B0, size: 0x8, addend: 0x0, symName: __ZNSt3__19allocatorI4PageEC1B8ue170006Ev, symObjAddr: 0x2394, symBinAddr: 0x100006EEC, symSize: 0x2C }
  - { offsetInCU: 0xC0DA, offset: 0x1E923, size: 0x8, addend: 0x0, symName: __ZNSt3__118__allocation_guardINS_9allocatorINS_20__shared_ptr_emplaceI4PageNS1_IS3_EEEEEEEC1B8ue170006IS4_EET_m, symObjAddr: 0x23C0, symBinAddr: 0x100006F18, symSize: 0x34 }
  - { offsetInCU: 0xC127, offset: 0x1E970, size: 0x8, addend: 0x0, symName: __ZNKSt3__118__allocation_guardINS_9allocatorINS_20__shared_ptr_emplaceI4PageNS1_IS3_EEEEEEE5__getB8ue170006Ev, symObjAddr: 0x23F4, symBinAddr: 0x100006F4C, symSize: 0x18 }
  - { offsetInCU: 0xC14C, offset: 0x1E995, size: 0x8, addend: 0x0, symName: __ZNSt3__120__shared_ptr_emplaceI4PageNS_9allocatorIS1_EEEC1B8ue170006IJRS1_EEES3_DpOT_, symObjAddr: 0x240C, symBinAddr: 0x100006F64, symSize: 0x34 }
  - { offsetInCU: 0xC19D, offset: 0x1E9E6, size: 0x8, addend: 0x0, symName: __ZNSt3__118__allocation_guardINS_9allocatorINS_20__shared_ptr_emplaceI4PageNS1_IS3_EEEEEEE13__release_ptrB8ue170006Ev, symObjAddr: 0x2440, symBinAddr: 0x100006F98, symSize: 0x24 }
  - { offsetInCU: 0xC1D0, offset: 0x1EA19, size: 0x8, addend: 0x0, symName: __ZNSt3__110shared_ptrI4PageE27__create_with_control_blockB8ue170006IS1_NS_20__shared_ptr_emplaceIS1_NS_9allocatorIS1_EEEEEES2_PT_PT0_, symObjAddr: 0x2464, symBinAddr: 0x100006FBC, symSize: 0xA4 }
  - { offsetInCU: 0xC225, offset: 0x1EA6E, size: 0x8, addend: 0x0, symName: __ZNSt3__120__shared_ptr_emplaceI4PageNS_9allocatorIS1_EEE10__get_elemB8ue170006Ev, symObjAddr: 0x2508, symBinAddr: 0x100007060, symSize: 0x28 }
  - { offsetInCU: 0xC249, offset: 0x1EA92, size: 0x8, addend: 0x0, symName: __ZNSt3__118__allocation_guardINS_9allocatorINS_20__shared_ptr_emplaceI4PageNS1_IS3_EEEEEEED1B8ue170006Ev, symObjAddr: 0x2530, symBinAddr: 0x100007088, symSize: 0x2C }
  - { offsetInCU: 0xC271, offset: 0x1EABA, size: 0x8, addend: 0x0, symName: __ZNSt3__118__allocation_guardINS_9allocatorINS_20__shared_ptr_emplaceI4PageNS1_IS3_EEEEEEEC2B8ue170006IS4_EET_m, symObjAddr: 0x255C, symBinAddr: 0x1000070B4, symSize: 0x50 }
  - { offsetInCU: 0xC2BE, offset: 0x1EB07, size: 0x8, addend: 0x0, symName: __ZNSt3__19allocatorINS_20__shared_ptr_emplaceI4PageNS0_IS2_EEEEEC1B8ue170006IS2_EERKNS0_IT_EE, symObjAddr: 0x25AC, symBinAddr: 0x100007104, symSize: 0x34 }
  - { offsetInCU: 0xC2FA, offset: 0x1EB43, size: 0x8, addend: 0x0, symName: __ZNSt3__116allocator_traitsINS_9allocatorINS_20__shared_ptr_emplaceI4PageNS1_IS3_EEEEEEE8allocateB8ue170006ERS6_m, symObjAddr: 0x25E0, symBinAddr: 0x100007138, symSize: 0x2C }
  - { offsetInCU: 0xC32D, offset: 0x1EB76, size: 0x8, addend: 0x0, symName: __ZNSt3__19allocatorINS_20__shared_ptr_emplaceI4PageNS0_IS2_EEEEEC2B8ue170006IS2_EERKNS0_IT_EE, symObjAddr: 0x260C, symBinAddr: 0x100007164, symSize: 0x30 }
  - { offsetInCU: 0xC369, offset: 0x1EBB2, size: 0x8, addend: 0x0, symName: __ZNSt3__116__non_trivial_ifILb1ENS_9allocatorINS_20__shared_ptr_emplaceI4PageNS1_IS3_EEEEEEEC2B8ue170006Ev, symObjAddr: 0x263C, symBinAddr: 0x100007194, symSize: 0x14 }
  - { offsetInCU: 0xC392, offset: 0x1EBDB, size: 0x8, addend: 0x0, symName: __ZNSt3__19allocatorINS_20__shared_ptr_emplaceI4PageNS0_IS2_EEEEE8allocateB8ue170006Em, symObjAddr: 0x2650, symBinAddr: 0x1000071A8, symSize: 0x5C }
  - { offsetInCU: 0xC3CE, offset: 0x1EC17, size: 0x8, addend: 0x0, symName: __ZNSt3__116allocator_traitsINS_9allocatorINS_20__shared_ptr_emplaceI4PageNS1_IS3_EEEEEEE8max_sizeB8ue170006IS6_vEEmRKS6_, symObjAddr: 0x26AC, symBinAddr: 0x100007204, symSize: 0x24 }
  - { offsetInCU: 0xC3FD, offset: 0x1EC46, size: 0x8, addend: 0x0, symName: __ZNKSt3__19allocatorINS_20__shared_ptr_emplaceI4PageNS0_IS2_EEEEE8max_sizeB8ue170006Ev, symObjAddr: 0x272C, symBinAddr: 0x100007228, symSize: 0x18 }
  - { offsetInCU: 0xC422, offset: 0x1EC6B, size: 0x8, addend: 0x0, symName: __ZNSt3__120__shared_ptr_emplaceI4PageNS_9allocatorIS1_EEEC2B8ue170006IJRS1_EEES3_DpOT_, symObjAddr: 0x2768, symBinAddr: 0x100007240, symSize: 0xB8 }
  - { offsetInCU: 0xC473, offset: 0x1ECBC, size: 0x8, addend: 0x0, symName: __ZNSt3__119__shared_weak_countC2B8ue170006El, symObjAddr: 0x2820, symBinAddr: 0x1000072F8, symSize: 0x54 }
  - { offsetInCU: 0xC4A9, offset: 0x1ECF2, size: 0x8, addend: 0x0, symName: __ZNSt3__120__shared_ptr_emplaceI4PageNS_9allocatorIS1_EEE8_StorageC1B8ue170006EOS3_, symObjAddr: 0x2874, symBinAddr: 0x10000734C, symSize: 0x34 }
  - { offsetInCU: 0xC4E0, offset: 0x1ED29, size: 0x8, addend: 0x0, symName: __ZNSt3__120__shared_ptr_emplaceI4PageNS_9allocatorIS1_EEE8_StorageD1B8ue170006Ev, symObjAddr: 0x28A8, symBinAddr: 0x100007380, symSize: 0x2C }
  - { offsetInCU: 0xC508, offset: 0x1ED51, size: 0x8, addend: 0x0, symName: __ZNSt3__120__shared_ptr_emplaceI4PageNS_9allocatorIS1_EEED1Ev, symObjAddr: 0x28D4, symBinAddr: 0x1000073AC, symSize: 0x2C }
  - { offsetInCU: 0xC534, offset: 0x1ED7D, size: 0x8, addend: 0x0, symName: __ZNSt3__120__shared_ptr_emplaceI4PageNS_9allocatorIS1_EEED0Ev, symObjAddr: 0x2900, symBinAddr: 0x1000073D8, symSize: 0x30 }
  - { offsetInCU: 0xC560, offset: 0x1EDA9, size: 0x8, addend: 0x0, symName: __ZNSt3__120__shared_ptr_emplaceI4PageNS_9allocatorIS1_EEE16__on_zero_sharedEv, symObjAddr: 0x2930, symBinAddr: 0x100007408, symSize: 0x28 }
  - { offsetInCU: 0xC584, offset: 0x1EDCD, size: 0x8, addend: 0x0, symName: __ZNSt3__120__shared_ptr_emplaceI4PageNS_9allocatorIS1_EEE21__on_zero_shared_weakEv, symObjAddr: 0x2958, symBinAddr: 0x100007430, symSize: 0x5C }
  - { offsetInCU: 0xC5C3, offset: 0x1EE0C, size: 0x8, addend: 0x0, symName: __ZNSt3__114__shared_countC2B8ue170006El, symObjAddr: 0x29B4, symBinAddr: 0x10000748C, symSize: 0x30 }
  - { offsetInCU: 0xC5FA, offset: 0x1EE43, size: 0x8, addend: 0x0, symName: __ZNSt3__120__shared_ptr_emplaceI4PageNS_9allocatorIS1_EEE8_StorageC2B8ue170006EOS3_, symObjAddr: 0x29E4, symBinAddr: 0x1000074BC, symSize: 0x30 }
  - { offsetInCU: 0xC631, offset: 0x1EE7A, size: 0x8, addend: 0x0, symName: __ZNSt3__120__shared_ptr_emplaceI4PageNS_9allocatorIS1_EEE8_Storage11__get_allocB8ue170006Ev, symObjAddr: 0x2A14, symBinAddr: 0x1000074EC, symSize: 0x3C }
  - { offsetInCU: 0xC682, offset: 0x1EECB, size: 0x8, addend: 0x0, symName: __ZNSt3__117__compressed_pairINS_9allocatorI4PageEES2_E16__get_first_baseB8ue170006EPS4_, symObjAddr: 0x2A50, symBinAddr: 0x100007528, symSize: 0x14 }
  - { offsetInCU: 0xC6A5, offset: 0x1EEEE, size: 0x8, addend: 0x0, symName: __ZNSt3__120__shared_ptr_emplaceI4PageNS_9allocatorIS1_EEE8_StorageD2B8ue170006Ev, symObjAddr: 0x2A64, symBinAddr: 0x10000753C, symSize: 0x2C }
  - { offsetInCU: 0xC6CD, offset: 0x1EF16, size: 0x8, addend: 0x0, symName: __ZNSt3__120__shared_ptr_emplaceI4PageNS_9allocatorIS1_EEED2Ev, symObjAddr: 0x2A90, symBinAddr: 0x100007568, symSize: 0x48 }
  - { offsetInCU: 0xC6F9, offset: 0x1EF42, size: 0x8, addend: 0x0, symName: __ZN4PageD1Ev, symObjAddr: 0x2AD8, symBinAddr: 0x1000075B0, symSize: 0x2C }
  - { offsetInCU: 0xC723, offset: 0x1EF6C, size: 0x8, addend: 0x0, symName: __ZN4PageD2Ev, symObjAddr: 0x2B04, symBinAddr: 0x1000075DC, symSize: 0x2C }
  - { offsetInCU: 0xC74D, offset: 0x1EF96, size: 0x8, addend: 0x0, symName: __ZNSt3__120__shared_ptr_emplaceI4PageNS_9allocatorIS1_EEE11__get_allocB8ue170006Ev, symObjAddr: 0x305C, symBinAddr: 0x100007608, symSize: 0x28 }
  - { offsetInCU: 0xC771, offset: 0x1EFBA, size: 0x8, addend: 0x0, symName: __ZNSt3__116allocator_traitsINS_9allocatorINS_20__shared_ptr_emplaceI4PageNS1_IS3_EEEEEEE10deallocateB8ue170006ERS6_PS5_m, symObjAddr: 0x3084, symBinAddr: 0x100007630, symSize: 0x34 }
  - { offsetInCU: 0xC7B3, offset: 0x1EFFC, size: 0x8, addend: 0x0, symName: __ZNSt3__114pointer_traitsIPNS_20__shared_ptr_emplaceI4PageNS_9allocatorIS2_EEEEE10pointer_toB8ue170006ERS5_, symObjAddr: 0x30B8, symBinAddr: 0x100007664, symSize: 0x14 }
  - { offsetInCU: 0xC7D6, offset: 0x1F01F, size: 0x8, addend: 0x0, symName: __ZNSt3__19allocatorINS_20__shared_ptr_emplaceI4PageNS0_IS2_EEEEE10deallocateB8ue170006EPS4_m, symObjAddr: 0x30CC, symBinAddr: 0x100007678, symSize: 0x44 }
  - { offsetInCU: 0xC816, offset: 0x1F05F, size: 0x8, addend: 0x0, symName: __ZNSt3__110shared_ptrI4PageEC1B8ue170006Ev, symObjAddr: 0x3110, symBinAddr: 0x1000076BC, symSize: 0x2C }
  - { offsetInCU: 0xC83E, offset: 0x1F087, size: 0x8, addend: 0x0, symName: __ZNSt3__110shared_ptrI4PageE18__enable_weak_thisB8ue170006Ez, symObjAddr: 0x313C, symBinAddr: 0x1000076E8, symSize: 0x10 }
  - { offsetInCU: 0xC864, offset: 0x1F0AD, size: 0x8, addend: 0x0, symName: __ZNSt3__110shared_ptrI4PageEC2B8ue170006Ev, symObjAddr: 0x314C, symBinAddr: 0x1000076F8, symSize: 0x1C }
  - { offsetInCU: 0xC88D, offset: 0x1F0D6, size: 0x8, addend: 0x0, symName: __ZNSt3__120__shared_ptr_emplaceI4PageNS_9allocatorIS1_EEE8_Storage10__get_elemB8ue170006Ev, symObjAddr: 0x3168, symBinAddr: 0x100007714, symSize: 0x3C }
  - { offsetInCU: 0xC8DE, offset: 0x1F127, size: 0x8, addend: 0x0, symName: __ZNSt3__117__compressed_pairINS_9allocatorI4PageEES2_E17__get_second_baseB8ue170006EPS4_, symObjAddr: 0x31A4, symBinAddr: 0x100007750, symSize: 0x14 }
  - { offsetInCU: 0xC901, offset: 0x1F14A, size: 0x8, addend: 0x0, symName: __ZNSt3__118__allocation_guardINS_9allocatorINS_20__shared_ptr_emplaceI4PageNS1_IS3_EEEEEEED2B8ue170006Ev, symObjAddr: 0x31B8, symBinAddr: 0x100007764, symSize: 0x2C }
  - { offsetInCU: 0xC929, offset: 0x1F172, size: 0x8, addend: 0x0, symName: __ZNSt3__118__allocation_guardINS_9allocatorINS_20__shared_ptr_emplaceI4PageNS1_IS3_EEEEEEE9__destroyB8ue170006Ev, symObjAddr: 0x31E4, symBinAddr: 0x100007790, symSize: 0x4C }
  - { offsetInCU: 0xC94D, offset: 0x1F196, size: 0x8, addend: 0x0, symName: __ZNSt3__19allocatorI4PageEC2B8ue170006Ev, symObjAddr: 0x3230, symBinAddr: 0x1000077DC, symSize: 0x2C }
  - { offsetInCU: 0xC975, offset: 0x1F1BE, size: 0x8, addend: 0x0, symName: __ZNSt3__116__non_trivial_ifILb1ENS_9allocatorI4PageEEEC2B8ue170006Ev, symObjAddr: 0x325C, symBinAddr: 0x100007808, symSize: 0x14 }
  - { offsetInCU: 0xC99E, offset: 0x1F1E7, size: 0x8, addend: 0x0, symName: __ZNSt3__110shared_ptrI4PageED2B8ue170006Ev, symObjAddr: 0x3270, symBinAddr: 0x10000781C, symSize: 0x54 }
  - { offsetInCU: 0xC9C6, offset: 0x1F20F, size: 0x8, addend: 0x0, symName: __ZNSt3__119__shared_weak_count16__release_sharedB8ue170006Ev, symObjAddr: 0x32C4, symBinAddr: 0x100007870, symSize: 0x3C }
  - { offsetInCU: 0xC9EA, offset: 0x1F233, size: 0x8, addend: 0x0, symName: __ZNSt3__114__shared_count16__release_sharedB8ue170006Ev, symObjAddr: 0x3300, symBinAddr: 0x1000078AC, symSize: 0x7C }
  - { offsetInCU: 0xCA0E, offset: 0x1F257, size: 0x8, addend: 0x0, symName: __ZNSt3__16vectorINS_10shared_ptrI4PageEENS_9allocatorIS3_EEE9__end_capB8ue170006Ev, symObjAddr: 0x33AC, symBinAddr: 0x100007958, symSize: 0x28 }
  - { offsetInCU: 0xCA32, offset: 0x1F27B, size: 0x8, addend: 0x0, symName: __ZNSt3__16vectorINS_10shared_ptrI4PageEENS_9allocatorIS3_EEE22__construct_one_at_endB8ue170006IJS3_EEEvDpOT_, symObjAddr: 0x33D4, symBinAddr: 0x100007980, symSize: 0x90 }
  - { offsetInCU: 0xCA7F, offset: 0x1F2C8, size: 0x8, addend: 0x0, symName: __ZNSt3__16vectorINS_10shared_ptrI4PageEENS_9allocatorIS3_EEE21__push_back_slow_pathIS3_EEvOT_, symObjAddr: 0x3464, symBinAddr: 0x100007A10, symSize: 0xD8 }
  - { offsetInCU: 0xCADC, offset: 0x1F325, size: 0x8, addend: 0x0, symName: __ZNSt3__117__compressed_pairIPNS_10shared_ptrI4PageEENS_9allocatorIS3_EEE5firstB8ue170006Ev, symObjAddr: 0x353C, symBinAddr: 0x100007AE8, symSize: 0x24 }
  - { offsetInCU: 0xCB00, offset: 0x1F349, size: 0x8, addend: 0x0, symName: __ZNSt3__122__compressed_pair_elemIPNS_10shared_ptrI4PageEELi0ELb0EE5__getB8ue170006Ev, symObjAddr: 0x3560, symBinAddr: 0x100007B0C, symSize: 0x14 }
  - { offsetInCU: 0xCB3E, offset: 0x1F387, size: 0x8, addend: 0x0, symName: __ZNSt3__16vectorINS_10shared_ptrI4PageEENS_9allocatorIS3_EEE21_ConstructTransactionC1B8ue170006ERS6_m, symObjAddr: 0x3574, symBinAddr: 0x100007B20, symSize: 0x3C }
  - { offsetInCU: 0xCB84, offset: 0x1F3CD, size: 0x8, addend: 0x0, symName: __ZNSt3__116allocator_traitsINS_9allocatorINS_10shared_ptrI4PageEEEEE9constructB8ue170006IS4_JS4_EvEEvRS5_PT_DpOT0_, symObjAddr: 0x35B0, symBinAddr: 0x100007B5C, symSize: 0x34 }
  - { offsetInCU: 0xCBDC, offset: 0x1F425, size: 0x8, addend: 0x0, symName: __ZNSt3__16vectorINS_10shared_ptrI4PageEENS_9allocatorIS3_EEE21_ConstructTransactionD1B8ue170006Ev, symObjAddr: 0x35E4, symBinAddr: 0x100007B90, symSize: 0x2C }
  - { offsetInCU: 0xCC04, offset: 0x1F44D, size: 0x8, addend: 0x0, symName: __ZNSt3__16vectorINS_10shared_ptrI4PageEENS_9allocatorIS3_EEE21_ConstructTransactionC2B8ue170006ERS6_m, symObjAddr: 0x3610, symBinAddr: 0x100007BBC, symSize: 0x44 }
  - { offsetInCU: 0xCC4B, offset: 0x1F494, size: 0x8, addend: 0x0, symName: __ZNSt3__19allocatorINS_10shared_ptrI4PageEEE9constructB8ue170006IS3_JS3_EEEvPT_DpOT0_, symObjAddr: 0x3654, symBinAddr: 0x100007C00, symSize: 0x30 }
  - { offsetInCU: 0xCC9F, offset: 0x1F4E8, size: 0x8, addend: 0x0, symName: __ZNSt3__110shared_ptrI4PageEC1B8ue170006EOS2_, symObjAddr: 0x3684, symBinAddr: 0x100007C30, symSize: 0x34 }
  - { offsetInCU: 0xCCD6, offset: 0x1F51F, size: 0x8, addend: 0x0, symName: __ZNSt3__110shared_ptrI4PageEC2B8ue170006EOS2_, symObjAddr: 0x36B8, symBinAddr: 0x100007C64, symSize: 0x40 }
  - { offsetInCU: 0xCD0E, offset: 0x1F557, size: 0x8, addend: 0x0, symName: __ZNSt3__16vectorINS_10shared_ptrI4PageEENS_9allocatorIS3_EEE21_ConstructTransactionD2B8ue170006Ev, symObjAddr: 0x36F8, symBinAddr: 0x100007CA4, symSize: 0x20 }
  - { offsetInCU: 0xCD37, offset: 0x1F580, size: 0x8, addend: 0x0, symName: __ZNKSt3__16vectorINS_10shared_ptrI4PageEENS_9allocatorIS3_EEE11__recommendB8ue170006Em, symObjAddr: 0x3718, symBinAddr: 0x100007CC4, symSize: 0xB4 }
  - { offsetInCU: 0xCD8B, offset: 0x1F5D4, size: 0x8, addend: 0x0, symName: __ZNSt3__114__split_bufferINS_10shared_ptrI4PageEERNS_9allocatorIS3_EEEC1EmmS6_, symObjAddr: 0x37CC, symBinAddr: 0x100007D78, symSize: 0x44 }
  - { offsetInCU: 0xCDE0, offset: 0x1F629, size: 0x8, addend: 0x0, symName: __ZNSt3__114__split_bufferINS_10shared_ptrI4PageEERNS_9allocatorIS3_EEED1Ev, symObjAddr: 0x3920, symBinAddr: 0x100007ECC, symSize: 0x2C }
  - { offsetInCU: 0xCE0B, offset: 0x1F654, size: 0x8, addend: 0x0, symName: __ZNKSt3__16vectorINS_10shared_ptrI4PageEENS_9allocatorIS3_EEE8max_sizeEv, symObjAddr: 0x394C, symBinAddr: 0x100007EF8, symSize: 0x60 }
  - { offsetInCU: 0xCE32, offset: 0x1F67B, size: 0x8, addend: 0x0, symName: __ZNKSt3__16vectorINS_10shared_ptrI4PageEENS_9allocatorIS3_EEE20__throw_length_errorB8ue170006Ev, symObjAddr: 0x39AC, symBinAddr: 0x100007F58, symSize: 0x1C }
  - { offsetInCU: 0xCE60, offset: 0x1F6A9, size: 0x8, addend: 0x0, symName: __ZNSt3__116allocator_traitsINS_9allocatorINS_10shared_ptrI4PageEEEEE8max_sizeB8ue170006IS5_vEEmRKS5_, symObjAddr: 0x3A20, symBinAddr: 0x100007F74, symSize: 0x24 }
  - { offsetInCU: 0xCE8F, offset: 0x1F6D8, size: 0x8, addend: 0x0, symName: __ZNKSt3__16vectorINS_10shared_ptrI4PageEENS_9allocatorIS3_EEE7__allocB8ue170006Ev, symObjAddr: 0x3A44, symBinAddr: 0x100007F98, symSize: 0x28 }
  - { offsetInCU: 0xCEB3, offset: 0x1F6FC, size: 0x8, addend: 0x0, symName: __ZNKSt3__19allocatorINS_10shared_ptrI4PageEEE8max_sizeB8ue170006Ev, symObjAddr: 0x3B08, symBinAddr: 0x100007FC0, symSize: 0x14 }
  - { offsetInCU: 0xCED8, offset: 0x1F721, size: 0x8, addend: 0x0, symName: __ZNKSt3__117__compressed_pairIPNS_10shared_ptrI4PageEENS_9allocatorIS3_EEE6secondB8ue170006Ev, symObjAddr: 0x3B1C, symBinAddr: 0x100007FD4, symSize: 0x24 }
  - { offsetInCU: 0xCEFC, offset: 0x1F745, size: 0x8, addend: 0x0, symName: __ZNKSt3__122__compressed_pair_elemINS_9allocatorINS_10shared_ptrI4PageEEEELi1ELb1EE5__getB8ue170006Ev, symObjAddr: 0x3B40, symBinAddr: 0x100007FF8, symSize: 0x14 }
  - { offsetInCU: 0xCF21, offset: 0x1F76A, size: 0x8, addend: 0x0, symName: __ZNSt3__114__split_bufferINS_10shared_ptrI4PageEERNS_9allocatorIS3_EEEC2EmmS6_, symObjAddr: 0x3C94, symBinAddr: 0x10000800C, symSize: 0xD4 }
  - { offsetInCU: 0xCF94, offset: 0x1F7DD, size: 0x8, addend: 0x0, symName: __ZNSt3__117__compressed_pairIPNS_10shared_ptrI4PageEERNS_9allocatorIS3_EEEC1B8ue170006IDnS7_EEOT_OT0_, symObjAddr: 0x3D68, symBinAddr: 0x1000080E0, symSize: 0x3C }
  - { offsetInCU: 0xCFEA, offset: 0x1F833, size: 0x8, addend: 0x0, symName: __ZNSt3__114__split_bufferINS_10shared_ptrI4PageEERNS_9allocatorIS3_EEE7__allocB8ue170006Ev, symObjAddr: 0x3DE4, symBinAddr: 0x10000815C, symSize: 0x28 }
  - { offsetInCU: 0xD00E, offset: 0x1F857, size: 0x8, addend: 0x0, symName: __ZNSt3__114__split_bufferINS_10shared_ptrI4PageEERNS_9allocatorIS3_EEE9__end_capB8ue170006Ev, symObjAddr: 0x3E0C, symBinAddr: 0x100008184, symSize: 0x28 }
  - { offsetInCU: 0xD032, offset: 0x1F87B, size: 0x8, addend: 0x0, symName: __ZNSt3__117__compressed_pairIPNS_10shared_ptrI4PageEERNS_9allocatorIS3_EEEC2B8ue170006IDnS7_EEOT_OT0_, symObjAddr: 0x3E34, symBinAddr: 0x1000081AC, symSize: 0x48 }
  - { offsetInCU: 0xD088, offset: 0x1F8D1, size: 0x8, addend: 0x0, symName: __ZNSt3__122__compressed_pair_elemIRNS_9allocatorINS_10shared_ptrI4PageEEEELi1ELb0EEC2B8ue170006IS6_vEEOT_, symObjAddr: 0x3E7C, symBinAddr: 0x1000081F4, symSize: 0x20 }
  - { offsetInCU: 0xD0CA, offset: 0x1F913, size: 0x8, addend: 0x0, symName: __ZNSt3__19allocatorINS_10shared_ptrI4PageEEE8allocateB8ue170006Em, symObjAddr: 0x3E9C, symBinAddr: 0x100008214, symSize: 0x58 }
  - { offsetInCU: 0xD0FC, offset: 0x1F945, size: 0x8, addend: 0x0, symName: __ZNSt3__117__compressed_pairIPNS_10shared_ptrI4PageEERNS_9allocatorIS3_EEE6secondB8ue170006Ev, symObjAddr: 0x3EF4, symBinAddr: 0x10000826C, symSize: 0x28 }
  - { offsetInCU: 0xD120, offset: 0x1F969, size: 0x8, addend: 0x0, symName: __ZNSt3__122__compressed_pair_elemIRNS_9allocatorINS_10shared_ptrI4PageEEEELi1ELb0EE5__getB8ue170006Ev, symObjAddr: 0x3F1C, symBinAddr: 0x100008294, symSize: 0x18 }
  - { offsetInCU: 0xD145, offset: 0x1F98E, size: 0x8, addend: 0x0, symName: __ZNSt3__117__compressed_pairIPNS_10shared_ptrI4PageEERNS_9allocatorIS3_EEE5firstB8ue170006Ev, symObjAddr: 0x3F34, symBinAddr: 0x1000082AC, symSize: 0x24 }
  - { offsetInCU: 0xD169, offset: 0x1F9B2, size: 0x8, addend: 0x0, symName: __ZNSt3__116reverse_iteratorIPNS_10shared_ptrI4PageEEEC1B8ue170006ES4_, symObjAddr: 0x4084, symBinAddr: 0x1000083FC, symSize: 0x34 }
  - { offsetInCU: 0xD19F, offset: 0x1F9E8, size: 0x8, addend: 0x0, symName: __ZNKSt3__116reverse_iteratorIPNS_10shared_ptrI4PageEEE4baseB8ue170006Ev, symObjAddr: 0x40B8, symBinAddr: 0x100008430, symSize: 0x18 }
  - { offsetInCU: 0xD1C4, offset: 0x1FA0D, size: 0x8, addend: 0x0, symName: __ZNKSt3__16vectorINS_10shared_ptrI4PageEENS_9allocatorIS3_EEE14__annotate_newB8ue170006Em, symObjAddr: 0x410C, symBinAddr: 0x100008484, symSize: 0xAC }
  - { offsetInCU: 0xD1F7, offset: 0x1FA40, size: 0x8, addend: 0x0, symName: __ZNSt3__129_AllocatorDestroyRangeReverseINS_9allocatorINS_10shared_ptrI4PageEEEENS_16reverse_iteratorIPS4_EEEC1B8ue170006ERS5_RS8_SB_, symObjAddr: 0x4204, symBinAddr: 0x10000857C, symSize: 0x44 }
  - { offsetInCU: 0xD24C, offset: 0x1FA95, size: 0x8, addend: 0x0, symName: __ZNKSt3__116reverse_iteratorIPNS_10shared_ptrI4PageEEEdeB8ue170006Ev, symObjAddr: 0x42B4, symBinAddr: 0x10000862C, symSize: 0x28 }
  - { offsetInCU: 0xD27F, offset: 0x1FAC8, size: 0x8, addend: 0x0, symName: __ZNSt3__116reverse_iteratorIPNS_10shared_ptrI4PageEEEppB8ue170006Ev, symObjAddr: 0x42DC, symBinAddr: 0x100008654, symSize: 0x20 }
  - { offsetInCU: 0xD2A4, offset: 0x1FAED, size: 0x8, addend: 0x0, symName: __ZNSt3__128__exception_guard_exceptionsINS_29_AllocatorDestroyRangeReverseINS_9allocatorINS_10shared_ptrI4PageEEEENS_16reverse_iteratorIPS5_EEEEE10__completeB8ue170006Ev, symObjAddr: 0x42FC, symBinAddr: 0x100008674, symSize: 0x1C }
  - { offsetInCU: 0xD2C9, offset: 0x1FB12, size: 0x8, addend: 0x0, symName: __ZNSt3__128__exception_guard_exceptionsINS_29_AllocatorDestroyRangeReverseINS_9allocatorINS_10shared_ptrI4PageEEEENS_16reverse_iteratorIPS5_EEEEED1B8ue170006Ev, symObjAddr: 0x4318, symBinAddr: 0x100008690, symSize: 0x2C }
  - { offsetInCU: 0xD2F1, offset: 0x1FB3A, size: 0x8, addend: 0x0, symName: __ZNSt3__128__exception_guard_exceptionsINS_29_AllocatorDestroyRangeReverseINS_9allocatorINS_10shared_ptrI4PageEEEENS_16reverse_iteratorIPS5_EEEEEC1B8ue170006ESA_, symObjAddr: 0x4344, symBinAddr: 0x1000086BC, symSize: 0x34 }
  - { offsetInCU: 0xD328, offset: 0x1FB71, size: 0x8, addend: 0x0, symName: __ZNSt3__128__exception_guard_exceptionsINS_29_AllocatorDestroyRangeReverseINS_9allocatorINS_10shared_ptrI4PageEEEENS_16reverse_iteratorIPS5_EEEEEC2B8ue170006ESA_, symObjAddr: 0x4378, symBinAddr: 0x1000086F0, symSize: 0x30 }
  - { offsetInCU: 0xD360, offset: 0x1FBA9, size: 0x8, addend: 0x0, symName: __ZNSt3__129_AllocatorDestroyRangeReverseINS_9allocatorINS_10shared_ptrI4PageEEEENS_16reverse_iteratorIPS4_EEEC2B8ue170006ERS5_RS8_SB_, symObjAddr: 0x43A8, symBinAddr: 0x100008720, symSize: 0x38 }
  - { offsetInCU: 0xD3BB, offset: 0x1FC04, size: 0x8, addend: 0x0, symName: __ZNSt3__119__to_address_helperINS_16reverse_iteratorIPNS_10shared_ptrI4PageEEEEvE6__callB8ue170006ERKS6_, symObjAddr: 0x43E0, symBinAddr: 0x100008758, symSize: 0x38 }
  - { offsetInCU: 0xD3DE, offset: 0x1FC27, size: 0x8, addend: 0x0, symName: __ZNKSt3__116reverse_iteratorIPNS_10shared_ptrI4PageEEEptB8ue170006Ev, symObjAddr: 0x4418, symBinAddr: 0x100008790, symSize: 0x24 }
  - { offsetInCU: 0xD402, offset: 0x1FC4B, size: 0x8, addend: 0x0, symName: __ZNSt3__128__exception_guard_exceptionsINS_29_AllocatorDestroyRangeReverseINS_9allocatorINS_10shared_ptrI4PageEEEENS_16reverse_iteratorIPS5_EEEEED2B8ue170006Ev, symObjAddr: 0x443C, symBinAddr: 0x1000087B4, symSize: 0x50 }
  - { offsetInCU: 0xD42A, offset: 0x1FC73, size: 0x8, addend: 0x0, symName: __ZNKSt3__129_AllocatorDestroyRangeReverseINS_9allocatorINS_10shared_ptrI4PageEEEENS_16reverse_iteratorIPS4_EEEclB8ue170006Ev, symObjAddr: 0x448C, symBinAddr: 0x100008804, symSize: 0xB4 }
  - { offsetInCU: 0xD44F, offset: 0x1FC98, size: 0x8, addend: 0x0, symName: __ZNSt3__116reverse_iteratorINS0_IPNS_10shared_ptrI4PageEEEEEC1B8ue170006ES5_, symObjAddr: 0x45B0, symBinAddr: 0x100008928, symSize: 0x3C }
  - { offsetInCU: 0xD485, offset: 0x1FCCE, size: 0x8, addend: 0x0, symName: __ZNSt3__116reverse_iteratorINS0_IPNS_10shared_ptrI4PageEEEEEppB8ue170006Ev, symObjAddr: 0x4670, symBinAddr: 0x1000089E8, symSize: 0x30 }
  - { offsetInCU: 0xD4A9, offset: 0x1FCF2, size: 0x8, addend: 0x0, symName: __ZNKSt3__116reverse_iteratorINS0_IPNS_10shared_ptrI4PageEEEEE4baseB8ue170006Ev, symObjAddr: 0x46A0, symBinAddr: 0x100008A18, symSize: 0x24 }
  - { offsetInCU: 0xD4D3, offset: 0x1FD1C, size: 0x8, addend: 0x0, symName: __ZNSt3__119__to_address_helperINS_16reverse_iteratorINS1_IPNS_10shared_ptrI4PageEEEEEEvE6__callB8ue170006ERKS7_, symObjAddr: 0x46C4, symBinAddr: 0x100008A3C, symSize: 0x38 }
  - { offsetInCU: 0xD4F6, offset: 0x1FD3F, size: 0x8, addend: 0x0, symName: __ZNKSt3__116reverse_iteratorINS0_IPNS_10shared_ptrI4PageEEEEEptB8ue170006Ev, symObjAddr: 0x46FC, symBinAddr: 0x100008A74, symSize: 0x24 }
  - { offsetInCU: 0xD51A, offset: 0x1FD63, size: 0x8, addend: 0x0, symName: __ZNKSt3__116reverse_iteratorINS0_IPNS_10shared_ptrI4PageEEEEEdeB8ue170006Ev, symObjAddr: 0x4720, symBinAddr: 0x100008A98, symSize: 0x34 }
  - { offsetInCU: 0xD54C, offset: 0x1FD95, size: 0x8, addend: 0x0, symName: __ZNSt3__116reverse_iteratorIPNS_10shared_ptrI4PageEEEmmB8ue170006Ev, symObjAddr: 0x4754, symBinAddr: 0x100008ACC, symSize: 0x20 }
  - { offsetInCU: 0xD571, offset: 0x1FDBA, size: 0x8, addend: 0x0, symName: __ZNSt3__116reverse_iteratorINS0_IPNS_10shared_ptrI4PageEEEEEC2B8ue170006ES5_, symObjAddr: 0x4774, symBinAddr: 0x100008AEC, symSize: 0x2C }
  - { offsetInCU: 0xD5A8, offset: 0x1FDF1, size: 0x8, addend: 0x0, symName: __ZNSt3__116reverse_iteratorIPNS_10shared_ptrI4PageEEEC2B8ue170006ES4_, symObjAddr: 0x47A0, symBinAddr: 0x100008B18, symSize: 0x28 }
  - { offsetInCU: 0xD5DF, offset: 0x1FE28, size: 0x8, addend: 0x0, symName: __ZNSt3__114__split_bufferINS_10shared_ptrI4PageEERNS_9allocatorIS3_EEED2Ev, symObjAddr: 0x47C8, symBinAddr: 0x100008B40, symSize: 0x8C }
  - { offsetInCU: 0xD60A, offset: 0x1FE53, size: 0x8, addend: 0x0, symName: __ZNSt3__114__split_bufferINS_10shared_ptrI4PageEERNS_9allocatorIS3_EEE5clearB8ue170006Ev, symObjAddr: 0x4854, symBinAddr: 0x100008BCC, symSize: 0x28 }
  - { offsetInCU: 0xD62E, offset: 0x1FE77, size: 0x8, addend: 0x0, symName: __ZNKSt3__114__split_bufferINS_10shared_ptrI4PageEERNS_9allocatorIS3_EEE8capacityB8ue170006Ev, symObjAddr: 0x487C, symBinAddr: 0x100008BF4, symSize: 0x40 }
  - { offsetInCU: 0xD652, offset: 0x1FE9B, size: 0x8, addend: 0x0, symName: __ZNSt3__114__split_bufferINS_10shared_ptrI4PageEERNS_9allocatorIS3_EEE17__destruct_at_endB8ue170006EPS3_, symObjAddr: 0x48BC, symBinAddr: 0x100008C34, symSize: 0x2C }
  - { offsetInCU: 0xD684, offset: 0x1FECD, size: 0x8, addend: 0x0, symName: __ZNSt3__114__split_bufferINS_10shared_ptrI4PageEERNS_9allocatorIS3_EEE17__destruct_at_endB8ue170006EPS3_NS_17integral_constantIbLb0EEE, symObjAddr: 0x48E8, symBinAddr: 0x100008C60, symSize: 0x80 }
  - { offsetInCU: 0xD6C4, offset: 0x1FF0D, size: 0x8, addend: 0x0, symName: __ZNKSt3__114__split_bufferINS_10shared_ptrI4PageEERNS_9allocatorIS3_EEE9__end_capB8ue170006Ev, symObjAddr: 0x4968, symBinAddr: 0x100008CE0, symSize: 0x28 }
  - { offsetInCU: 0xD6E8, offset: 0x1FF31, size: 0x8, addend: 0x0, symName: __ZNKSt3__117__compressed_pairIPNS_10shared_ptrI4PageEERNS_9allocatorIS3_EEE5firstB8ue170006Ev, symObjAddr: 0x4990, symBinAddr: 0x100008D08, symSize: 0x24 }
  - { offsetInCU: 0xD70C, offset: 0x1FF55, size: 0x8, addend: 0x0, symName: __ZNSt3__112basic_stringIcNS_11char_traitsIcEENS_9allocatorIcEEEC2B8ue170006ILi0EEEPKc, symObjAddr: 0x49B4, symBinAddr: 0x100008D2C, symSize: 0x58 }
  - { offsetInCU: 0xD749, offset: 0x1FF92, size: 0x8, addend: 0x0, symName: __ZNSt3__19basic_iosIcNS_11char_traitsIcEEEC2B8ue170006Ev, symObjAddr: 0x4A0C, symBinAddr: 0x100008D84, symSize: 0x44 }
  - { offsetInCU: 0xD771, offset: 0x1FFBA, size: 0x8, addend: 0x0, symName: __ZNSt3__113basic_istreamIcNS_11char_traitsIcEEEC2B8ue170006EPNS_15basic_streambufIcS2_EE, symObjAddr: 0x4A50, symBinAddr: 0x100008DC8, symSize: 0x64 }
  - { offsetInCU: 0xD7B3, offset: 0x1FFFC, size: 0x8, addend: 0x0, symName: __ZNSt3__113basic_filebufIcNS_11char_traitsIcEEE4openERKNS_12basic_stringIcS2_NS_9allocatorIcEEEEj, symObjAddr: 0x4AB4, symBinAddr: 0x100008E2C, symSize: 0x44 }
  - { offsetInCU: 0xD7F6, offset: 0x2003F, size: 0x8, addend: 0x0, symName: __ZNSt3__18ios_baseC2B8ue170006Ev, symObjAddr: 0x4AF8, symBinAddr: 0x100008E70, symSize: 0x24 }
  - { offsetInCU: 0xD81F, offset: 0x20068, size: 0x8, addend: 0x0, symName: __ZNSt3__19basic_iosIcNS_11char_traitsIcEEE4initB8ue170006EPNS_15basic_streambufIcS2_EE, symObjAddr: 0x4B1C, symBinAddr: 0x100008E94, symSize: 0x44 }
  - { offsetInCU: 0xD855, offset: 0x2009E, size: 0x8, addend: 0x0, symName: __ZNKSt3__112basic_stringIcNS_11char_traitsIcEENS_9allocatorIcEEE5c_strB8ue170006Ev, symObjAddr: 0x4B60, symBinAddr: 0x100008ED8, symSize: 0x24 }
  - { offsetInCU: 0xD879, offset: 0x200C2, size: 0x8, addend: 0x0, symName: __ZNSt3__120__shared_ptr_emplaceI4PageNS_9allocatorIS1_EEEC1B8ue170006IJEEES3_DpOT_, symObjAddr: 0x4C14, symBinAddr: 0x100008F8C, symSize: 0x2C }
  - { offsetInCU: 0xD8B5, offset: 0x200FE, size: 0x8, addend: 0x0, symName: __ZNSt3__120__shared_ptr_emplaceI4PageNS_9allocatorIS1_EEEC2B8ue170006IJEEES3_DpOT_, symObjAddr: 0x4C40, symBinAddr: 0x100008FB8, symSize: 0xB0 }
  - { offsetInCU: 0xD90F, offset: 0x20158, size: 0x8, addend: 0x0, symName: __ZNKSt3__113basic_istreamIcNS_11char_traitsIcEEE6sentrycvbB8ue170006Ev, symObjAddr: 0x4F28, symBinAddr: 0x1000092A0, symSize: 0x1C }
  - { offsetInCU: 0xD934, offset: 0x2017D, size: 0x8, addend: 0x0, symName: __ZNSt3__112basic_stringIcNS_11char_traitsIcEENS_9allocatorIcEEE5clearB8ue170006Ev, symObjAddr: 0x4F44, symBinAddr: 0x1000092BC, symSize: 0x78 }
  - { offsetInCU: 0xD95B, offset: 0x201A4, size: 0x8, addend: 0x0, symName: __ZNSt3__115basic_streambufIcNS_11char_traitsIcEEE6sbumpcB8ue170006Ev, symObjAddr: 0x4FBC, symBinAddr: 0x100009334, symSize: 0x78 }
  - { offsetInCU: 0xD97F, offset: 0x201C8, size: 0x8, addend: 0x0, symName: __ZNSt3__111char_traitsIcE12to_char_typeB8ue170006Ei, symObjAddr: 0x5034, symBinAddr: 0x1000093AC, symSize: 0x18 }
  - { offsetInCU: 0xD9A2, offset: 0x201EB, size: 0x8, addend: 0x0, symName: __ZNSt3__111char_traitsIcE2eqEcc, symObjAddr: 0x504C, symBinAddr: 0x1000093C4, symSize: 0x28 }
  - { offsetInCU: 0xD9D3, offset: 0x2021C, size: 0x8, addend: 0x0, symName: __ZNKSt3__112basic_stringIcNS_11char_traitsIcEENS_9allocatorIcEEE8max_sizeB8ue170006Ev, symObjAddr: 0x50C8, symBinAddr: 0x1000093EC, symSize: 0xAC }
  - { offsetInCU: 0xDA24, offset: 0x2026D, size: 0x8, addend: 0x0, symName: __ZNSt3__18ios_base18__setstate_nothrowB8ue170006Ej, symObjAddr: 0x5174, symBinAddr: 0x100009498, symSize: 0x64 }
  - { offsetInCU: 0xDA58, offset: 0x202A1, size: 0x8, addend: 0x0, symName: __ZNKSt3__19basic_iosIcNS_11char_traitsIcEEE10exceptionsB8ue170006Ev, symObjAddr: 0x51D8, symBinAddr: 0x1000094FC, symSize: 0x24 }
  - { offsetInCU: 0xDA7C, offset: 0x202C5, size: 0x8, addend: 0x0, symName: __ZNSt3__112basic_stringIcNS_11char_traitsIcEENS_9allocatorIcEEE15__set_long_sizeB8ue170006Em, symObjAddr: 0x5248, symBinAddr: 0x100009520, symSize: 0x38 }
  - { offsetInCU: 0xDAAF, offset: 0x202F8, size: 0x8, addend: 0x0, symName: __ZNSt3__111char_traitsIcE11to_int_typeB8ue170006Ec, symObjAddr: 0x5334, symBinAddr: 0x100009558, symSize: 0x14 }
  - { offsetInCU: 0xDADD, offset: 0x20326, size: 0x8, addend: 0x0, symName: __ZNSt3__116allocator_traitsINS_9allocatorIcEEE8max_sizeB8ue170006IS2_vEEmRKS2_, symObjAddr: 0x53A4, symBinAddr: 0x10000956C, symSize: 0x24 }
  - { offsetInCU: 0xDB0C, offset: 0x20355, size: 0x8, addend: 0x0, symName: __ZNKSt3__112basic_stringIcNS_11char_traitsIcEENS_9allocatorIcEEE7__allocB8ue170006Ev, symObjAddr: 0x53C8, symBinAddr: 0x100009590, symSize: 0x24 }
  - { offsetInCU: 0xDB30, offset: 0x20379, size: 0x8, addend: 0x0, symName: __ZNSt3__114numeric_limitsImE3maxB8ue170006Ev, symObjAddr: 0x53EC, symBinAddr: 0x1000095B4, symSize: 0x14 }
  - { offsetInCU: 0xDB44, offset: 0x2038D, size: 0x8, addend: 0x0, symName: __ZNKSt3__19allocatorIcE8max_sizeB8ue170006Ev, symObjAddr: 0x5400, symBinAddr: 0x1000095C8, symSize: 0x14 }
  - { offsetInCU: 0xDB69, offset: 0x203B2, size: 0x8, addend: 0x0, symName: __ZNKSt3__117__compressed_pairINS_12basic_stringIcNS_11char_traitsIcEENS_9allocatorIcEEE5__repES5_E6secondB8ue170006Ev, symObjAddr: 0x5414, symBinAddr: 0x1000095DC, symSize: 0x24 }
  - { offsetInCU: 0xDB8D, offset: 0x203D6, size: 0x8, addend: 0x0, symName: __ZNKSt3__122__compressed_pair_elemINS_9allocatorIcEELi1ELb1EE5__getB8ue170006Ev, symObjAddr: 0x5438, symBinAddr: 0x100009600, symSize: 0x14 }
  - { offsetInCU: 0xDBB2, offset: 0x203FB, size: 0x8, addend: 0x0, symName: __ZNSt3__123__libcpp_numeric_limitsImLb1EE3maxB8ue170006Ev, symObjAddr: 0x544C, symBinAddr: 0x100009614, symSize: 0x8 }
  - { offsetInCU: 0xDBC6, offset: 0x2040F, size: 0x8, addend: 0x0, symName: __ZNKSt3__18ios_base10exceptionsB8ue170006Ev, symObjAddr: 0x5454, symBinAddr: 0x10000961C, symSize: 0x18 }
  - { offsetInCU: 0xDBED, offset: 0x20436, size: 0x8, addend: 0x0, symName: __ZNKSt3__19basic_iosIcNS_11char_traitsIcEEE4failB8ue170006Ev, symObjAddr: 0x546C, symBinAddr: 0x100009634, symSize: 0x28 }
  - { offsetInCU: 0xDC11, offset: 0x2045A, size: 0x8, addend: 0x0, symName: __ZNKSt3__18ios_base4failB8ue170006Ev, symObjAddr: 0x5494, symBinAddr: 0x10000965C, symSize: 0x28 }
  - { offsetInCU: 0xDC38, offset: 0x20481, size: 0x8, addend: 0x0, symName: __ZNSt3__19allocatorIcEC1B8ue170006Ev, symObjAddr: 0x54BC, symBinAddr: 0x100009684, symSize: 0x2C }
  - { offsetInCU: 0x7042, offset: 0x275DA, size: 0x8, addend: 0x0, symName: __ZN3MemC2Ev, symObjAddr: 0x0, symBinAddr: 0x1000096B0, symSize: 0xD0 }
  - { offsetInCU: 0x7089, offset: 0x27621, size: 0x8, addend: 0x0, symName: __ZN3MemC1Ev, symObjAddr: 0x1F8, symBinAddr: 0x100009780, symSize: 0x2C }
  - { offsetInCU: 0x70B3, offset: 0x2764B, size: 0x8, addend: 0x0, symName: __ZN3MemD2Ev, symObjAddr: 0x224, symBinAddr: 0x1000097AC, symSize: 0x98 }
  - { offsetInCU: 0x711E, offset: 0x276B6, size: 0x8, addend: 0x0, symName: __ZN3MemD1Ev, symObjAddr: 0x3AC, symBinAddr: 0x100009844, symSize: 0x2C }
  - { offsetInCU: 0x7148, offset: 0x276E0, size: 0x8, addend: 0x0, symName: __ZN3Mem5resetEv, symObjAddr: 0x3D8, symBinAddr: 0x100009870, symSize: 0x7C }
  - { offsetInCU: 0x71C2, offset: 0x2775A, size: 0x8, addend: 0x0, symName: __ZN3Mem8mem_pageEj, symObjAddr: 0x454, symBinAddr: 0x1000098EC, symSize: 0x34 }
  - { offsetInCU: 0x71F7, offset: 0x2778F, size: 0x8, addend: 0x0, symName: __ZN3Mem12loadFromDiskEP4Diskjj, symObjAddr: 0x4C4, symBinAddr: 0x100009920, symSize: 0x70 }
  - { offsetInCU: 0x7256, offset: 0x277EE, size: 0x8, addend: 0x0, symName: __ZN3Mem11flushToDiskEP4Diskj, symObjAddr: 0x534, symBinAddr: 0x100009990, symSize: 0x80 }
  - { offsetInCU: 0x72A7, offset: 0x2783F, size: 0x8, addend: 0x0, symName: __ZN3Mem5printEv, symObjAddr: 0x5B4, symBinAddr: 0x100009A10, symSize: 0xC0 }
  - { offsetInCU: 0x72EB, offset: 0x27883, size: 0x8, addend: 0x0, symName: __ZNK3Mem17loadFromDiskTimesEv, symObjAddr: 0x770, symBinAddr: 0x100009AD0, symSize: 0x18 }
  - { offsetInCU: 0x7312, offset: 0x278AA, size: 0x8, addend: 0x0, symName: __ZNK3Mem16flushToDiskTimesEv, symObjAddr: 0x788, symBinAddr: 0x100009AE8, symSize: 0x18 }
  - { offsetInCU: 0x5B4A, offset: 0x2D447, size: 0x8, addend: 0x0, symName: __ZNSt3__122__make_exception_guardB8ue170006INS_6vectorIjNS_9allocatorIjEEE16__destroy_vectorEEENS_28__exception_guard_exceptionsIT_EES7_, symObjAddr: 0x658, symBinAddr: 0x10000A14C, symSize: 0x40 }
  - { offsetInCU: 0x5B7F, offset: 0x2D47C, size: 0x8, addend: 0x0, symName: __ZNSt3__119__allocate_at_leastB8ue170006INS_9allocatorIjEEEENS_19__allocation_resultINS_16allocator_traitsIT_E7pointerEEERS5_m, symObjAddr: 0x940, symBinAddr: 0x10000A434, symSize: 0x40 }
  - { offsetInCU: 0x5BC2, offset: 0x2D4BF, size: 0x8, addend: 0x0, symName: __ZNSt3__112__to_addressB8ue170006IjEEPT_S2_, symObjAddr: 0xE38, symBinAddr: 0x10000A6F8, symSize: 0x14 }
  - { offsetInCU: 0x5BF7, offset: 0x2D4F4, size: 0x8, addend: 0x0, symName: __ZNSt3__130__uninitialized_allocator_copyB8ue170006INS_9allocatorIjEEPjS3_S3_EET2_RT_T0_T1_S4_, symObjAddr: 0xEE8, symBinAddr: 0x10000A7A8, symSize: 0x80 }
  - { offsetInCU: 0x5C94, offset: 0x2D591, size: 0x8, addend: 0x0, symName: __ZNSt3__114__unwrap_rangeB8ue170006IPjS1_EENS_4pairIT0_S3_EET_S5_, symObjAddr: 0xFD8, symBinAddr: 0x10000A898, symSize: 0x60 }
  - { offsetInCU: 0x5CE0, offset: 0x2D5DD, size: 0x8, addend: 0x0, symName: __ZNSt3__135__uninitialized_allocator_copy_implB8ue170006INS_9allocatorIjEEjjjLPv0EEEPT2_RT_PT0_S9_S5_, symObjAddr: 0x1038, symBinAddr: 0x10000A8F8, symSize: 0x38 }
  - { offsetInCU: 0x5D62, offset: 0x2D65F, size: 0x8, addend: 0x0, symName: __ZNSt3__113__unwrap_iterB8ue170006IPjNS_18__unwrap_iter_implIS1_Lb1EEELi0EEEDTclsrT0_8__unwrapclsr3stdE7declvalIT_EEEES5_, symObjAddr: 0x1070, symBinAddr: 0x10000A930, symSize: 0x24 }
  - { offsetInCU: 0x5DA6, offset: 0x2D6A3, size: 0x8, addend: 0x0, symName: __ZNSt3__113__rewrap_iterB8ue170006IPjS1_NS_18__unwrap_iter_implIS1_Lb1EEEEET_S4_T0_, symObjAddr: 0x1094, symBinAddr: 0x10000A954, symSize: 0x3C }
  - { offsetInCU: 0x5DFB, offset: 0x2D6F8, size: 0x8, addend: 0x0, symName: __ZNSt3__19make_pairB8ue170006IPjS1_EENS_4pairINS_18__unwrap_ref_decayIT_E4typeENS3_IT0_E4typeEEEOS4_OS7_, symObjAddr: 0x10D0, symBinAddr: 0x10000A990, symSize: 0x38 }
  - { offsetInCU: 0x5F4D, offset: 0x2D84A, size: 0x8, addend: 0x0, symName: __ZNSt3__14copyB8ue170006IPjS1_EET0_T_S3_S2_, symObjAddr: 0x1178, symBinAddr: 0x10000AA38, symSize: 0x40 }
  - { offsetInCU: 0x5FA7, offset: 0x2D8A4, size: 0x8, addend: 0x0, symName: __ZNSt3__16__copyB8ue170006INS_17_ClassicAlgPolicyEPjS2_S2_EENS_4pairIT0_T2_EES4_T1_S5_, symObjAddr: 0x11B8, symBinAddr: 0x10000AA78, symSize: 0x44 }
  - { offsetInCU: 0x6013, offset: 0x2D910, size: 0x8, addend: 0x0, symName: __ZNSt3__123__dispatch_copy_or_moveB8ue170006INS_17_ClassicAlgPolicyENS_11__copy_loopIS1_EENS_14__copy_trivialEPjS5_S5_EENS_4pairIT2_T4_EES7_T3_S8_, symObjAddr: 0x11FC, symBinAddr: 0x10000AABC, symSize: 0x44 }
  - { offsetInCU: 0x6091, offset: 0x2D98E, size: 0x8, addend: 0x0, symName: __ZNSt3__121__unwrap_and_dispatchB8ue170006INS_10__overloadINS_11__copy_loopINS_17_ClassicAlgPolicyEEENS_14__copy_trivialEEEPjS7_S7_Li0EEENS_4pairIT0_T2_EES9_T1_SA_, symObjAddr: 0x1240, symBinAddr: 0x10000AB00, symSize: 0xB4 }
  - { offsetInCU: 0x6165, offset: 0x2DA62, size: 0x8, addend: 0x0, symName: __ZNSt3__114__rewrap_rangeB8ue170006IPjS1_EET_S2_T0_, symObjAddr: 0x133C, symBinAddr: 0x10000ABFC, symSize: 0x2C }
  - { offsetInCU: 0x61B1, offset: 0x2DAAE, size: 0x8, addend: 0x0, symName: __ZNSt3__119__copy_trivial_implB8ue170006IjjEENS_4pairIPT_PT0_EES3_S3_S5_, symObjAddr: 0x1368, symBinAddr: 0x10000AC28, symSize: 0x80 }
  - { offsetInCU: 0x6219, offset: 0x2DB16, size: 0x8, addend: 0x0, symName: __ZNSt3__119__constexpr_memmoveB8ue170006IjjLi0EEEPT_S2_PT0_NS_15__element_countE, symObjAddr: 0x13E8, symBinAddr: 0x10000ACA8, symSize: 0x64 }
  - { offsetInCU: 0x6287, offset: 0x2DB84, size: 0x8, addend: 0x0, symName: __ZNSt3__19make_pairB8ue170006IRPjS1_EENS_4pairINS_18__unwrap_ref_decayIT_E4typeENS4_IT0_E4typeEEEOS5_OS8_, symObjAddr: 0x144C, symBinAddr: 0x10000AD0C, symSize: 0x38 }
  - { offsetInCU: 0x6329, offset: 0x2DC26, size: 0x8, addend: 0x0, symName: __ZNSt3__142__uninitialized_allocator_move_if_noexceptB8ue170006INS_9allocatorIjEENS_16reverse_iteratorIPjEES5_jvEET1_RT_T0_S9_S6_, symObjAddr: 0x1FA8, symBinAddr: 0x10000B76C, symSize: 0x78 }
  - { offsetInCU: 0x63A8, offset: 0x2DCA5, size: 0x8, addend: 0x0, symName: __ZNSt3__14swapB8ue170006IPjEENS_9enable_ifIXaasr21is_move_constructibleIT_EE5valuesr18is_move_assignableIS3_EE5valueEvE4typeERS3_S6_, symObjAddr: 0x206C, symBinAddr: 0x10000B830, symSize: 0x3C }
  - { offsetInCU: 0x63F9, offset: 0x2DCF6, size: 0x8, addend: 0x0, symName: __ZNSt3__14moveB8ue170006INS_16reverse_iteratorIPjEES3_EET0_T_S5_S4_, symObjAddr: 0x20A8, symBinAddr: 0x10000B86C, symSize: 0x78 }
  - { offsetInCU: 0x6453, offset: 0x2DD50, size: 0x8, addend: 0x0, symName: __ZNSt3__16__moveB8ue170006INS_17_ClassicAlgPolicyENS_16reverse_iteratorIPjEES4_S4_EENS_4pairIT0_T2_EES6_T1_S7_, symObjAddr: 0x2120, symBinAddr: 0x10000B8E4, symSize: 0x64 }
  - { offsetInCU: 0x64BF, offset: 0x2DDBC, size: 0x8, addend: 0x0, symName: __ZNSt3__123__dispatch_copy_or_moveB8ue170006INS_17_ClassicAlgPolicyENS_11__move_loopIS1_EENS_14__move_trivialENS_16reverse_iteratorIPjEES7_S7_EENS_4pairIT2_T4_EES9_T3_SA_, symObjAddr: 0x2184, symBinAddr: 0x10000B948, symSize: 0x64 }
  - { offsetInCU: 0x653D, offset: 0x2DE3A, size: 0x8, addend: 0x0, symName: __ZNSt3__121__unwrap_and_dispatchB8ue170006INS_10__overloadINS_11__move_loopINS_17_ClassicAlgPolicyEEENS_14__move_trivialEEENS_16reverse_iteratorIPjEES9_S9_Li0EEENS_4pairIT0_T2_EESB_T1_SC_, symObjAddr: 0x21E8, symBinAddr: 0x10000B9AC, symSize: 0x12C }
  - { offsetInCU: 0x65CD, offset: 0x2DECA, size: 0x8, addend: 0x0, symName: __ZNSt3__114__unwrap_rangeB8ue170006INS_16reverse_iteratorIPjEES3_EENS_4pairIT0_S5_EET_S7_, symObjAddr: 0x2314, symBinAddr: 0x10000BAD8, symSize: 0x84 }
  - { offsetInCU: 0x6748, offset: 0x2E045, size: 0x8, addend: 0x0, symName: __ZNSt3__113__unwrap_iterB8ue170006INS_16reverse_iteratorIPjEENS_18__unwrap_iter_implIS3_Lb0EEELi0EEEDTclsrT0_8__unwrapclsr3stdE7declvalIT_EEEES7_, symObjAddr: 0x2438, symBinAddr: 0x10000BBFC, symSize: 0x44 }
  - { offsetInCU: 0x678C, offset: 0x2E089, size: 0x8, addend: 0x0, symName: __ZNSt3__19make_pairB8ue170006INS_16reverse_iteratorIPjEES3_EENS_4pairINS_18__unwrap_ref_decayIT_E4typeENS5_IT0_E4typeEEEOS6_OS9_, symObjAddr: 0x247C, symBinAddr: 0x10000BC40, symSize: 0x38 }
  - { offsetInCU: 0x67DB, offset: 0x2E0D8, size: 0x8, addend: 0x0, symName: __ZNSt3__114__rewrap_rangeB8ue170006INS_16reverse_iteratorIPjEES3_EET_S4_T0_, symObjAddr: 0x24B4, symBinAddr: 0x10000BC78, symSize: 0x5C }
  - { offsetInCU: 0x6827, offset: 0x2E124, size: 0x8, addend: 0x0, symName: __ZNSt3__113__rewrap_iterB8ue170006INS_16reverse_iteratorIPjEES3_NS_18__unwrap_iter_implIS3_Lb0EEEEET_S6_T0_, symObjAddr: 0x2510, symBinAddr: 0x10000BCD4, symSize: 0x74 }
  - { offsetInCU: 0x687C, offset: 0x2E179, size: 0x8, addend: 0x0, symName: __ZNSt3__1neB8ue170006IPjS1_EEbRKNS_16reverse_iteratorIT_EERKNS2_IT0_EE, symObjAddr: 0x2584, symBinAddr: 0x10000BD48, symSize: 0x48 }
  - { offsetInCU: 0x6D47, offset: 0x2E644, size: 0x8, addend: 0x0, symName: __ZNSt3__16vectorIjNS_9allocatorIjEEE26__swap_out_circular_bufferERNS_14__split_bufferIjRS2_EE, symObjAddr: 0x1BC0, symBinAddr: 0x10000B404, symSize: 0x110 }
  - { offsetInCU: 0x8FC0, offset: 0x308BD, size: 0x8, addend: 0x0, symName: __ZN6BucketC2EP4Disk, symObjAddr: 0x0, symBinAddr: 0x100009B00, symSize: 0x50 }
  - { offsetInCU: 0x8FF8, offset: 0x308F5, size: 0x8, addend: 0x0, symName: __ZNSt3__16vectorIjNS_9allocatorIjEEEC1B8ue170006Ev, symObjAddr: 0x50, symBinAddr: 0x100009B50, symSize: 0x2C }
  - { offsetInCU: 0x9020, offset: 0x3091D, size: 0x8, addend: 0x0, symName: __ZN6BucketC1EP4Disk, symObjAddr: 0x7C, symBinAddr: 0x100009B7C, symSize: 0x34 }
  - { offsetInCU: 0x9058, offset: 0x30955, size: 0x8, addend: 0x0, symName: __ZN6Bucket12get_left_relEv, symObjAddr: 0xB0, symBinAddr: 0x100009BB0, symSize: 0x3C }
  - { offsetInCU: 0x907F, offset: 0x3097C, size: 0x8, addend: 0x0, symName: __ZNSt3__16vectorIjNS_9allocatorIjEEEC1ERKS3_, symObjAddr: 0xEC, symBinAddr: 0x100009BEC, symSize: 0x34 }
  - { offsetInCU: 0x90B9, offset: 0x309B6, size: 0x8, addend: 0x0, symName: __ZN6Bucket13get_right_relEv, symObjAddr: 0x120, symBinAddr: 0x100009C20, symSize: 0x3C }
  - { offsetInCU: 0x90E0, offset: 0x309DD, size: 0x8, addend: 0x0, symName: __ZN6Bucket17add_left_rel_pageEj, symObjAddr: 0x15C, symBinAddr: 0x100009C5C, symSize: 0x5C }
  - { offsetInCU: 0x9115, offset: 0x30A12, size: 0x8, addend: 0x0, symName: __ZNSt3__16vectorIjNS_9allocatorIjEEE9push_backB8ue170006ERKj, symObjAddr: 0x1B8, symBinAddr: 0x100009CB8, symSize: 0x6C }
  - { offsetInCU: 0x914B, offset: 0x30A48, size: 0x8, addend: 0x0, symName: __ZN6Bucket18add_right_rel_pageEj, symObjAddr: 0x224, symBinAddr: 0x100009D24, symSize: 0x5C }
  - { offsetInCU: 0x9180, offset: 0x30A7D, size: 0x8, addend: 0x0, symName: __ZNSt3__16vectorIjNS_9allocatorIjEEEC2B8ue170006Ev, symObjAddr: 0x280, symBinAddr: 0x100009D80, symSize: 0x4C }
  - { offsetInCU: 0x91B2, offset: 0x30AAF, size: 0x8, addend: 0x0, symName: __ZNSt3__117__compressed_pairIPjNS_9allocatorIjEEEC1B8ue170006IDnNS_18__default_init_tagEEEOT_OT0_, symObjAddr: 0x2CC, symBinAddr: 0x100009DCC, symSize: 0x3C }
  - { offsetInCU: 0x9208, offset: 0x30B05, size: 0x8, addend: 0x0, symName: __ZNSt3__117__compressed_pairIPjNS_9allocatorIjEEEC2B8ue170006IDnNS_18__default_init_tagEEEOT_OT0_, symObjAddr: 0x314, symBinAddr: 0x100009E08, symSize: 0x40 }
  - { offsetInCU: 0x925E, offset: 0x30B5B, size: 0x8, addend: 0x0, symName: __ZNSt3__122__compressed_pair_elemIPjLi0ELb0EEC2B8ue170006IDnvEEOT_, symObjAddr: 0x354, symBinAddr: 0x100009E48, symSize: 0x1C }
  - { offsetInCU: 0x92A0, offset: 0x30B9D, size: 0x8, addend: 0x0, symName: __ZNSt3__122__compressed_pair_elemINS_9allocatorIjEELi1ELb1EEC2B8ue170006ENS_18__default_init_tagE, symObjAddr: 0x370, symBinAddr: 0x100009E64, symSize: 0x2C }
  - { offsetInCU: 0x92D3, offset: 0x30BD0, size: 0x8, addend: 0x0, symName: __ZNSt3__19allocatorIjEC2B8ue170006Ev, symObjAddr: 0x39C, symBinAddr: 0x100009E90, symSize: 0x2C }
  - { offsetInCU: 0x92FB, offset: 0x30BF8, size: 0x8, addend: 0x0, symName: __ZNSt3__116__non_trivial_ifILb1ENS_9allocatorIjEEEC2B8ue170006Ev, symObjAddr: 0x3C8, symBinAddr: 0x100009EBC, symSize: 0x14 }
  - { offsetInCU: 0x9324, offset: 0x30C21, size: 0x8, addend: 0x0, symName: __ZNSt3__16vectorIjNS_9allocatorIjEEEC2ERKS3_, symObjAddr: 0x3DC, symBinAddr: 0x100009ED0, symSize: 0x94 }
  - { offsetInCU: 0x9368, offset: 0x30C65, size: 0x8, addend: 0x0, symName: __ZNSt3__116allocator_traitsINS_9allocatorIjEEE37select_on_container_copy_constructionB8ue170006IS2_vvEES2_RKS2_, symObjAddr: 0x470, symBinAddr: 0x100009F64, symSize: 0x10 }
  - { offsetInCU: 0x9399, offset: 0x30C96, size: 0x8, addend: 0x0, symName: __ZNKSt3__16vectorIjNS_9allocatorIjEEE7__allocB8ue170006Ev, symObjAddr: 0x480, symBinAddr: 0x100009F74, symSize: 0x28 }
  - { offsetInCU: 0x93C2, offset: 0x30CBF, size: 0x8, addend: 0x0, symName: __ZNSt3__117__compressed_pairIPjNS_9allocatorIjEEEC1B8ue170006IDnS3_EEOT_OT0_, symObjAddr: 0x4A8, symBinAddr: 0x100009F9C, symSize: 0x3C }
  - { offsetInCU: 0x9418, offset: 0x30D15, size: 0x8, addend: 0x0, symName: __ZNSt3__16vectorIjNS_9allocatorIjEEE16__init_with_sizeB8ue170006IPjS5_EEvT_T0_m, symObjAddr: 0x4E4, symBinAddr: 0x100009FD8, symSize: 0xB8 }
  - { offsetInCU: 0x948A, offset: 0x30D87, size: 0x8, addend: 0x0, symName: __ZNKSt3__16vectorIjNS_9allocatorIjEEE4sizeB8ue170006Ev, symObjAddr: 0x59C, symBinAddr: 0x10000A090, symSize: 0x28 }
  - { offsetInCU: 0x94AF, offset: 0x30DAC, size: 0x8, addend: 0x0, symName: __ZNKSt3__117__compressed_pairIPjNS_9allocatorIjEEE6secondB8ue170006Ev, symObjAddr: 0x5C4, symBinAddr: 0x10000A0B8, symSize: 0x24 }
  - { offsetInCU: 0x94D3, offset: 0x30DD0, size: 0x8, addend: 0x0, symName: __ZNKSt3__122__compressed_pair_elemINS_9allocatorIjEELi1ELb1EE5__getB8ue170006Ev, symObjAddr: 0x5E8, symBinAddr: 0x10000A0DC, symSize: 0x14 }
  - { offsetInCU: 0x94F8, offset: 0x30DF5, size: 0x8, addend: 0x0, symName: __ZNSt3__117__compressed_pairIPjNS_9allocatorIjEEEC2B8ue170006IDnS3_EEOT_OT0_, symObjAddr: 0x5FC, symBinAddr: 0x10000A0F0, symSize: 0x44 }
  - { offsetInCU: 0x954E, offset: 0x30E4B, size: 0x8, addend: 0x0, symName: __ZNSt3__122__compressed_pair_elemINS_9allocatorIjEELi1ELb1EEC2B8ue170006IS2_vEEOT_, symObjAddr: 0x640, symBinAddr: 0x10000A134, symSize: 0x18 }
  - { offsetInCU: 0x9590, offset: 0x30E8D, size: 0x8, addend: 0x0, symName: __ZNSt3__16vectorIjNS_9allocatorIjEEE16__destroy_vectorC1B8ue170006ERS3_, symObjAddr: 0x698, symBinAddr: 0x10000A18C, symSize: 0x34 }
  - { offsetInCU: 0x95C7, offset: 0x30EC4, size: 0x8, addend: 0x0, symName: __ZNSt3__16vectorIjNS_9allocatorIjEEE11__vallocateB8ue170006Em, symObjAddr: 0x6CC, symBinAddr: 0x10000A1C0, symSize: 0xAC }
  - { offsetInCU: 0x9609, offset: 0x30F06, size: 0x8, addend: 0x0, symName: __ZNSt3__16vectorIjNS_9allocatorIjEEE18__construct_at_endIPjS5_EEvT_T0_m, symObjAddr: 0x778, symBinAddr: 0x10000A26C, symSize: 0x8C }
  - { offsetInCU: 0x967E, offset: 0x30F7B, size: 0x8, addend: 0x0, symName: __ZNSt3__128__exception_guard_exceptionsINS_6vectorIjNS_9allocatorIjEEE16__destroy_vectorEE10__completeB8ue170006Ev, symObjAddr: 0x804, symBinAddr: 0x10000A2F8, symSize: 0x1C }
  - { offsetInCU: 0x96A3, offset: 0x30FA0, size: 0x8, addend: 0x0, symName: __ZNSt3__128__exception_guard_exceptionsINS_6vectorIjNS_9allocatorIjEEE16__destroy_vectorEED1B8ue170006Ev, symObjAddr: 0x820, symBinAddr: 0x10000A314, symSize: 0x2C }
  - { offsetInCU: 0x96CB, offset: 0x30FC8, size: 0x8, addend: 0x0, symName: __ZNSt3__128__exception_guard_exceptionsINS_6vectorIjNS_9allocatorIjEEE16__destroy_vectorEEC1B8ue170006ES5_, symObjAddr: 0x84C, symBinAddr: 0x10000A340, symSize: 0x34 }
  - { offsetInCU: 0x9701, offset: 0x30FFE, size: 0x8, addend: 0x0, symName: __ZNSt3__128__exception_guard_exceptionsINS_6vectorIjNS_9allocatorIjEEE16__destroy_vectorEEC2B8ue170006ES5_, symObjAddr: 0x880, symBinAddr: 0x10000A374, symSize: 0x24 }
  - { offsetInCU: 0x9738, offset: 0x31035, size: 0x8, addend: 0x0, symName: __ZNSt3__16vectorIjNS_9allocatorIjEEE16__destroy_vectorC2B8ue170006ERS3_, symObjAddr: 0x8A4, symBinAddr: 0x10000A398, symSize: 0x20 }
  - { offsetInCU: 0x9770, offset: 0x3106D, size: 0x8, addend: 0x0, symName: __ZNKSt3__16vectorIjNS_9allocatorIjEEE8max_sizeEv, symObjAddr: 0x8C4, symBinAddr: 0x10000A3B8, symSize: 0x60 }
  - { offsetInCU: 0x9797, offset: 0x31094, size: 0x8, addend: 0x0, symName: __ZNKSt3__16vectorIjNS_9allocatorIjEEE20__throw_length_errorB8ue170006Ev, symObjAddr: 0x924, symBinAddr: 0x10000A418, symSize: 0x1C }
  - { offsetInCU: 0x97BB, offset: 0x310B8, size: 0x8, addend: 0x0, symName: __ZNSt3__16vectorIjNS_9allocatorIjEEE7__allocB8ue170006Ev, symObjAddr: 0x980, symBinAddr: 0x10000A474, symSize: 0x28 }
  - { offsetInCU: 0x97DF, offset: 0x310DC, size: 0x8, addend: 0x0, symName: __ZNSt3__16vectorIjNS_9allocatorIjEEE9__end_capB8ue170006Ev, symObjAddr: 0x9A8, symBinAddr: 0x10000A49C, symSize: 0x28 }
  - { offsetInCU: 0x9803, offset: 0x31100, size: 0x8, addend: 0x0, symName: __ZNKSt3__16vectorIjNS_9allocatorIjEEE14__annotate_newB8ue170006Em, symObjAddr: 0x9D0, symBinAddr: 0x10000A4C4, symSize: 0xAC }
  - { offsetInCU: 0x9836, offset: 0x31133, size: 0x8, addend: 0x0, symName: __ZNSt3__116allocator_traitsINS_9allocatorIjEEE8max_sizeB8ue170006IS2_vEEmRKS2_, symObjAddr: 0xAA8, symBinAddr: 0x10000A570, symSize: 0x24 }
  - { offsetInCU: 0x9865, offset: 0x31162, size: 0x8, addend: 0x0, symName: __ZNKSt3__19allocatorIjE8max_sizeB8ue170006Ev, symObjAddr: 0xB68, symBinAddr: 0x10000A594, symSize: 0x14 }
  - { offsetInCU: 0x988A, offset: 0x31187, size: 0x8, addend: 0x0, symName: __ZNSt3__19allocatorIjE8allocateB8ue170006Em, symObjAddr: 0xC68, symBinAddr: 0x10000A5A8, symSize: 0x58 }
  - { offsetInCU: 0x98BC, offset: 0x311B9, size: 0x8, addend: 0x0, symName: __ZNSt3__117__compressed_pairIPjNS_9allocatorIjEEE6secondB8ue170006Ev, symObjAddr: 0xD40, symBinAddr: 0x10000A600, symSize: 0x24 }
  - { offsetInCU: 0x98E0, offset: 0x311DD, size: 0x8, addend: 0x0, symName: __ZNSt3__122__compressed_pair_elemINS_9allocatorIjEELi1ELb1EE5__getB8ue170006Ev, symObjAddr: 0xD64, symBinAddr: 0x10000A624, symSize: 0x14 }
  - { offsetInCU: 0x9905, offset: 0x31202, size: 0x8, addend: 0x0, symName: __ZNSt3__117__compressed_pairIPjNS_9allocatorIjEEE5firstB8ue170006Ev, symObjAddr: 0xD78, symBinAddr: 0x10000A638, symSize: 0x24 }
  - { offsetInCU: 0x9929, offset: 0x31226, size: 0x8, addend: 0x0, symName: __ZNSt3__122__compressed_pair_elemIPjLi0ELb0EE5__getB8ue170006Ev, symObjAddr: 0xD9C, symBinAddr: 0x10000A65C, symSize: 0x14 }
  - { offsetInCU: 0x994E, offset: 0x3124B, size: 0x8, addend: 0x0, symName: __ZNKSt3__16vectorIjNS_9allocatorIjEEE31__annotate_contiguous_containerB8ue170006EPKvS5_S5_S5_, symObjAddr: 0xDB0, symBinAddr: 0x10000A670, symSize: 0x20 }
  - { offsetInCU: 0x99A3, offset: 0x312A0, size: 0x8, addend: 0x0, symName: __ZNKSt3__16vectorIjNS_9allocatorIjEEE4dataB8ue170006Ev, symObjAddr: 0xDD0, symBinAddr: 0x10000A690, symSize: 0x28 }
  - { offsetInCU: 0x99C7, offset: 0x312C4, size: 0x8, addend: 0x0, symName: __ZNKSt3__16vectorIjNS_9allocatorIjEEE8capacityB8ue170006Ev, symObjAddr: 0xDF8, symBinAddr: 0x10000A6B8, symSize: 0x40 }
  - { offsetInCU: 0x99EB, offset: 0x312E8, size: 0x8, addend: 0x0, symName: __ZNKSt3__16vectorIjNS_9allocatorIjEEE9__end_capB8ue170006Ev, symObjAddr: 0xE4C, symBinAddr: 0x10000A70C, symSize: 0x28 }
  - { offsetInCU: 0x9A0F, offset: 0x3130C, size: 0x8, addend: 0x0, symName: __ZNKSt3__117__compressed_pairIPjNS_9allocatorIjEEE5firstB8ue170006Ev, symObjAddr: 0xE74, symBinAddr: 0x10000A734, symSize: 0x24 }
  - { offsetInCU: 0x9A33, offset: 0x31330, size: 0x8, addend: 0x0, symName: __ZNKSt3__122__compressed_pair_elemIPjLi0ELb0EE5__getB8ue170006Ev, symObjAddr: 0xE98, symBinAddr: 0x10000A758, symSize: 0x14 }
  - { offsetInCU: 0x9A71, offset: 0x3136E, size: 0x8, addend: 0x0, symName: __ZNSt3__16vectorIjNS_9allocatorIjEEE21_ConstructTransactionC1B8ue170006ERS3_m, symObjAddr: 0xEAC, symBinAddr: 0x10000A76C, symSize: 0x3C }
  - { offsetInCU: 0x9AB7, offset: 0x313B4, size: 0x8, addend: 0x0, symName: __ZNSt3__16vectorIjNS_9allocatorIjEEE21_ConstructTransactionD1B8ue170006Ev, symObjAddr: 0xF68, symBinAddr: 0x10000A828, symSize: 0x2C }
  - { offsetInCU: 0x9ADF, offset: 0x313DC, size: 0x8, addend: 0x0, symName: __ZNSt3__16vectorIjNS_9allocatorIjEEE21_ConstructTransactionC2B8ue170006ERS3_m, symObjAddr: 0xF94, symBinAddr: 0x10000A854, symSize: 0x44 }
  - { offsetInCU: 0x9B44, offset: 0x31441, size: 0x8, addend: 0x0, symName: __ZNSt3__14pairIPjS1_EC1B8ue170006IS1_S1_LPv0EEEOT_OT0_, symObjAddr: 0x1108, symBinAddr: 0x10000A9C8, symSize: 0x3C }
  - { offsetInCU: 0x9BA0, offset: 0x3149D, size: 0x8, addend: 0x0, symName: __ZNSt3__14pairIPjS1_EC2B8ue170006IS1_S1_LPv0EEEOT_OT0_, symObjAddr: 0x1144, symBinAddr: 0x10000AA04, symSize: 0x34 }
  - { offsetInCU: 0x9C07, offset: 0x31504, size: 0x8, addend: 0x0, symName: __ZNKSt3__114__copy_trivialclB8ue170006IjjLi0EEENS_4pairIPT_PT0_EES4_S4_S6_, symObjAddr: 0x12F4, symBinAddr: 0x10000ABB4, symSize: 0x48 }
  - { offsetInCU: 0x9C6D, offset: 0x3156A, size: 0x8, addend: 0x0, symName: __ZNSt3__14pairIPjS1_EC1B8ue170006IRS1_S1_LPv0EEEOT_OT0_, symObjAddr: 0x1484, symBinAddr: 0x10000AD44, symSize: 0x3C }
  - { offsetInCU: 0x9CC9, offset: 0x315C6, size: 0x8, addend: 0x0, symName: __ZNSt3__14pairIPjS1_EC2B8ue170006IRS1_S1_LPv0EEEOT_OT0_, symObjAddr: 0x14C0, symBinAddr: 0x10000AD80, symSize: 0x34 }
  - { offsetInCU: 0x9D26, offset: 0x31623, size: 0x8, addend: 0x0, symName: __ZNSt3__118__unwrap_iter_implIPjLb1EE8__unwrapB8ue170006ES1_, symObjAddr: 0x14F4, symBinAddr: 0x10000ADB4, symSize: 0x24 }
  - { offsetInCU: 0x9D49, offset: 0x31646, size: 0x8, addend: 0x0, symName: __ZNSt3__118__unwrap_iter_implIPjLb1EE8__rewrapB8ue170006ES1_S1_, symObjAddr: 0x1518, symBinAddr: 0x10000ADD8, symSize: 0x50 }
  - { offsetInCU: 0x9D7A, offset: 0x31677, size: 0x8, addend: 0x0, symName: __ZNSt3__16vectorIjNS_9allocatorIjEEE21_ConstructTransactionD2B8ue170006Ev, symObjAddr: 0x1568, symBinAddr: 0x10000AE28, symSize: 0x20 }
  - { offsetInCU: 0x9DA3, offset: 0x316A0, size: 0x8, addend: 0x0, symName: __ZNSt3__128__exception_guard_exceptionsINS_6vectorIjNS_9allocatorIjEEE16__destroy_vectorEED2B8ue170006Ev, symObjAddr: 0x1588, symBinAddr: 0x10000AE48, symSize: 0x50 }
  - { offsetInCU: 0x9DCB, offset: 0x316C8, size: 0x8, addend: 0x0, symName: __ZNSt3__16vectorIjNS_9allocatorIjEEE16__destroy_vectorclB8ue170006Ev, symObjAddr: 0x15D8, symBinAddr: 0x10000AE98, symSize: 0x90 }
  - { offsetInCU: 0x9DEF, offset: 0x316EC, size: 0x8, addend: 0x0, symName: __ZNSt3__16vectorIjNS_9allocatorIjEEE7__clearB8ue170006Ev, symObjAddr: 0x1668, symBinAddr: 0x10000AF28, symSize: 0x28 }
  - { offsetInCU: 0x9E13, offset: 0x31710, size: 0x8, addend: 0x0, symName: __ZNKSt3__16vectorIjNS_9allocatorIjEEE17__annotate_deleteB8ue170006Ev, symObjAddr: 0x1690, symBinAddr: 0x10000AF50, symSize: 0xB8 }
  - { offsetInCU: 0x9E37, offset: 0x31734, size: 0x8, addend: 0x0, symName: __ZNSt3__116allocator_traitsINS_9allocatorIjEEE10deallocateB8ue170006ERS2_Pjm, symObjAddr: 0x1748, symBinAddr: 0x10000B008, symSize: 0x34 }
  - { offsetInCU: 0x9E79, offset: 0x31776, size: 0x8, addend: 0x0, symName: __ZNSt3__16vectorIjNS_9allocatorIjEEE22__base_destruct_at_endB8ue170006EPj, symObjAddr: 0x177C, symBinAddr: 0x10000B03C, symSize: 0x8C }
  - { offsetInCU: 0x9EBB, offset: 0x317B8, size: 0x8, addend: 0x0, symName: __ZNSt3__116allocator_traitsINS_9allocatorIjEEE7destroyB8ue170006IjvEEvRS2_PT_, symObjAddr: 0x1808, symBinAddr: 0x10000B0C8, symSize: 0x2C }
  - { offsetInCU: 0x9EF9, offset: 0x317F6, size: 0x8, addend: 0x0, symName: __ZNSt3__19allocatorIjE7destroyB8ue170006EPj, symObjAddr: 0x1834, symBinAddr: 0x10000B0F4, symSize: 0x14 }
  - { offsetInCU: 0x9F2C, offset: 0x31829, size: 0x8, addend: 0x0, symName: __ZNSt3__19allocatorIjE10deallocateB8ue170006EPjm, symObjAddr: 0x1848, symBinAddr: 0x10000B108, symSize: 0x40 }
  - { offsetInCU: 0x9F6C, offset: 0x31869, size: 0x8, addend: 0x0, symName: __ZNSt3__16vectorIjNS_9allocatorIjEEE22__construct_one_at_endB8ue170006IJRKjEEEvDpOT_, symObjAddr: 0x1904, symBinAddr: 0x10000B148, symSize: 0x90 }
  - { offsetInCU: 0x9FB9, offset: 0x318B6, size: 0x8, addend: 0x0, symName: __ZNSt3__16vectorIjNS_9allocatorIjEEE21__push_back_slow_pathIRKjEEvOT_, symObjAddr: 0x1994, symBinAddr: 0x10000B1D8, symSize: 0xD8 }
  - { offsetInCU: 0xA016, offset: 0x31913, size: 0x8, addend: 0x0, symName: __ZNSt3__116allocator_traitsINS_9allocatorIjEEE9constructB8ue170006IjJRKjEvEEvRS2_PT_DpOT0_, symObjAddr: 0x1A6C, symBinAddr: 0x10000B2B0, symSize: 0x34 }
  - { offsetInCU: 0xA06E, offset: 0x3196B, size: 0x8, addend: 0x0, symName: __ZNSt3__19allocatorIjE9constructB8ue170006IjJRKjEEEvPT_DpOT0_, symObjAddr: 0x1AA0, symBinAddr: 0x10000B2E4, symSize: 0x28 }
  - { offsetInCU: 0xA0C3, offset: 0x319C0, size: 0x8, addend: 0x0, symName: __ZNKSt3__16vectorIjNS_9allocatorIjEEE11__recommendB8ue170006Em, symObjAddr: 0x1AC8, symBinAddr: 0x10000B30C, symSize: 0xB4 }
  - { offsetInCU: 0xA117, offset: 0x31A14, size: 0x8, addend: 0x0, symName: __ZNSt3__114__split_bufferIjRNS_9allocatorIjEEEC1EmmS3_, symObjAddr: 0x1B7C, symBinAddr: 0x10000B3C0, symSize: 0x44 }
  - { offsetInCU: 0xA16C, offset: 0x31A69, size: 0x8, addend: 0x0, symName: __ZNSt3__114__split_bufferIjRNS_9allocatorIjEEED1Ev, symObjAddr: 0x1CD0, symBinAddr: 0x10000B514, symSize: 0x2C }
  - { offsetInCU: 0xA197, offset: 0x31A94, size: 0x8, addend: 0x0, symName: __ZNSt3__114__split_bufferIjRNS_9allocatorIjEEEC2EmmS3_, symObjAddr: 0x1D7C, symBinAddr: 0x10000B540, symSize: 0xD4 }
  - { offsetInCU: 0xA20A, offset: 0x31B07, size: 0x8, addend: 0x0, symName: __ZNSt3__117__compressed_pairIPjRNS_9allocatorIjEEEC1B8ue170006IDnS4_EEOT_OT0_, symObjAddr: 0x1E50, symBinAddr: 0x10000B614, symSize: 0x3C }
  - { offsetInCU: 0xA260, offset: 0x31B5D, size: 0x8, addend: 0x0, symName: __ZNSt3__114__split_bufferIjRNS_9allocatorIjEEE7__allocB8ue170006Ev, symObjAddr: 0x1E8C, symBinAddr: 0x10000B650, symSize: 0x28 }
  - { offsetInCU: 0xA284, offset: 0x31B81, size: 0x8, addend: 0x0, symName: __ZNSt3__114__split_bufferIjRNS_9allocatorIjEEE9__end_capB8ue170006Ev, symObjAddr: 0x1EB4, symBinAddr: 0x10000B678, symSize: 0x28 }
  - { offsetInCU: 0xA2A8, offset: 0x31BA5, size: 0x8, addend: 0x0, symName: __ZNSt3__117__compressed_pairIPjRNS_9allocatorIjEEEC2B8ue170006IDnS4_EEOT_OT0_, symObjAddr: 0x1EDC, symBinAddr: 0x10000B6A0, symSize: 0x48 }
  - { offsetInCU: 0xA2FE, offset: 0x31BFB, size: 0x8, addend: 0x0, symName: __ZNSt3__122__compressed_pair_elemIRNS_9allocatorIjEELi1ELb0EEC2B8ue170006IS3_vEEOT_, symObjAddr: 0x1F24, symBinAddr: 0x10000B6E8, symSize: 0x20 }
  - { offsetInCU: 0xA340, offset: 0x31C3D, size: 0x8, addend: 0x0, symName: __ZNSt3__117__compressed_pairIPjRNS_9allocatorIjEEE6secondB8ue170006Ev, symObjAddr: 0x1F44, symBinAddr: 0x10000B708, symSize: 0x28 }
  - { offsetInCU: 0xA364, offset: 0x31C61, size: 0x8, addend: 0x0, symName: __ZNSt3__122__compressed_pair_elemIRNS_9allocatorIjEELi1ELb0EE5__getB8ue170006Ev, symObjAddr: 0x1F6C, symBinAddr: 0x10000B730, symSize: 0x18 }
  - { offsetInCU: 0xA389, offset: 0x31C86, size: 0x8, addend: 0x0, symName: __ZNSt3__117__compressed_pairIPjRNS_9allocatorIjEEE5firstB8ue170006Ev, symObjAddr: 0x1F84, symBinAddr: 0x10000B748, symSize: 0x24 }
  - { offsetInCU: 0xA3AD, offset: 0x31CAA, size: 0x8, addend: 0x0, symName: __ZNSt3__116reverse_iteratorIPjEC1B8ue170006ES1_, symObjAddr: 0x2020, symBinAddr: 0x10000B7E4, symSize: 0x34 }
  - { offsetInCU: 0xA3E3, offset: 0x31CE0, size: 0x8, addend: 0x0, symName: __ZNKSt3__116reverse_iteratorIPjE4baseB8ue170006Ev, symObjAddr: 0x2054, symBinAddr: 0x10000B818, symSize: 0x18 }
  - { offsetInCU: 0xA42B, offset: 0x31D28, size: 0x8, addend: 0x0, symName: __ZNKSt3__111__move_loopINS_17_ClassicAlgPolicyEEclB8ue170006INS_16reverse_iteratorIPjEES6_S6_EENS_4pairIT_T1_EES8_T0_S9_, symObjAddr: 0x2398, symBinAddr: 0x10000BB5C, symSize: 0xA0 }
  - { offsetInCU: 0xA499, offset: 0x31D96, size: 0x8, addend: 0x0, symName: __ZNSt3__18_IterOpsINS_17_ClassicAlgPolicyEE11__iter_moveB8ue170006IRNS_16reverse_iteratorIPjEEEENS_9enable_ifIXsr12is_referenceIDTdeclsr3stdE7declvalIRT_EEEEE5valueEDTclsr3stdE4movedeclsr3stdE7declvalISA_EEEEE4typeEOS9_, symObjAddr: 0x25CC, symBinAddr: 0x10000BD90, symSize: 0x28 }
  - { offsetInCU: 0xA4C5, offset: 0x31DC2, size: 0x8, addend: 0x0, symName: __ZNKSt3__116reverse_iteratorIPjEdeB8ue170006Ev, symObjAddr: 0x25F4, symBinAddr: 0x10000BDB8, symSize: 0x28 }
  - { offsetInCU: 0xA4F8, offset: 0x31DF5, size: 0x8, addend: 0x0, symName: __ZNSt3__116reverse_iteratorIPjEppB8ue170006Ev, symObjAddr: 0x261C, symBinAddr: 0x10000BDE0, symSize: 0x20 }
  - { offsetInCU: 0xA51D, offset: 0x31E1A, size: 0x8, addend: 0x0, symName: __ZNSt3__18_IterOpsINS_17_ClassicAlgPolicyEE25__validate_iter_referenceB8ue170006IRNS_16reverse_iteratorIPjEEEEvv, symObjAddr: 0x263C, symBinAddr: 0x10000BE00, symSize: 0x4 }
  - { offsetInCU: 0xA53B, offset: 0x31E38, size: 0x8, addend: 0x0, symName: __ZNSt3__118__unwrap_iter_implINS_16reverse_iteratorIPjEELb0EE8__unwrapB8ue170006ES3_, symObjAddr: 0x2640, symBinAddr: 0x10000BE04, symSize: 0x24 }
  - { offsetInCU: 0xA563, offset: 0x31E60, size: 0x8, addend: 0x0, symName: __ZNSt3__14pairINS_16reverse_iteratorIPjEES3_EC1B8ue170006IS3_S3_LPv0EEEOT_OT0_, symObjAddr: 0x2664, symBinAddr: 0x10000BE28, symSize: 0x3C }
  - { offsetInCU: 0xA5BF, offset: 0x31EBC, size: 0x8, addend: 0x0, symName: __ZNSt3__14pairINS_16reverse_iteratorIPjEES3_EC2B8ue170006IS3_S3_LPv0EEEOT_OT0_, symObjAddr: 0x26A0, symBinAddr: 0x10000BE64, symSize: 0x34 }
  - { offsetInCU: 0xA61C, offset: 0x31F19, size: 0x8, addend: 0x0, symName: __ZNSt3__118__unwrap_iter_implINS_16reverse_iteratorIPjEELb0EE8__rewrapB8ue170006ES3_S3_, symObjAddr: 0x26D4, symBinAddr: 0x10000BE98, symSize: 0x2C }
  - { offsetInCU: 0xA64A, offset: 0x31F47, size: 0x8, addend: 0x0, symName: __ZNSt3__116reverse_iteratorIPjEC2B8ue170006ES1_, symObjAddr: 0x2700, symBinAddr: 0x10000BEC4, symSize: 0x28 }
  - { offsetInCU: 0xA681, offset: 0x31F7E, size: 0x8, addend: 0x0, symName: __ZNSt3__114__split_bufferIjRNS_9allocatorIjEEED2Ev, symObjAddr: 0x2728, symBinAddr: 0x10000BEEC, symSize: 0x8C }
  - { offsetInCU: 0xA6AC, offset: 0x31FA9, size: 0x8, addend: 0x0, symName: __ZNSt3__114__split_bufferIjRNS_9allocatorIjEEE5clearB8ue170006Ev, symObjAddr: 0x27B4, symBinAddr: 0x10000BF78, symSize: 0x28 }
  - { offsetInCU: 0xA6D0, offset: 0x31FCD, size: 0x8, addend: 0x0, symName: __ZNKSt3__114__split_bufferIjRNS_9allocatorIjEEE8capacityB8ue170006Ev, symObjAddr: 0x27DC, symBinAddr: 0x10000BFA0, symSize: 0x40 }
  - { offsetInCU: 0xA6F4, offset: 0x31FF1, size: 0x8, addend: 0x0, symName: __ZNSt3__114__split_bufferIjRNS_9allocatorIjEEE17__destruct_at_endB8ue170006EPj, symObjAddr: 0x281C, symBinAddr: 0x10000BFE0, symSize: 0x2C }
  - { offsetInCU: 0xA726, offset: 0x32023, size: 0x8, addend: 0x0, symName: __ZNSt3__114__split_bufferIjRNS_9allocatorIjEEE17__destruct_at_endB8ue170006EPjNS_17integral_constantIbLb0EEE, symObjAddr: 0x2848, symBinAddr: 0x10000C00C, symSize: 0x80 }
  - { offsetInCU: 0xA766, offset: 0x32063, size: 0x8, addend: 0x0, symName: __ZNKSt3__114__split_bufferIjRNS_9allocatorIjEEE9__end_capB8ue170006Ev, symObjAddr: 0x28C8, symBinAddr: 0x10000C08C, symSize: 0x28 }
  - { offsetInCU: 0xA78A, offset: 0x32087, size: 0x8, addend: 0x0, symName: __ZNKSt3__117__compressed_pairIPjRNS_9allocatorIjEEE5firstB8ue170006Ev, symObjAddr: 0x28F0, symBinAddr: 0x10000C0B4, symSize: 0x24 }
  - { offsetInCU: 0x5D21, offset: 0x37E3F, size: 0x8, addend: 0x0, symName: __ZNSt3__1neB8ue170006IPjEEbRKNS_11__wrap_iterIT_EES6_, symObjAddr: 0x122C, symBinAddr: 0x10000D2AC, symSize: 0x34 }
  - { offsetInCU: 0x5D64, offset: 0x37E82, size: 0x8, addend: 0x0, symName: __ZNSt3__1eqB8ue170006IPjEEbRKNS_11__wrap_iterIT_EES6_, symObjAddr: 0x13A4, symBinAddr: 0x10000D380, symSize: 0x48 }
  - { offsetInCU: 0x5DA7, offset: 0x37EC5, size: 0x8, addend: 0x0, symName: __ZNSt3__122__make_exception_guardB8ue170006INS_6vectorI6BucketNS_9allocatorIS2_EEE16__destroy_vectorEEENS_28__exception_guard_exceptionsIT_EES8_, symObjAddr: 0x1A70, symBinAddr: 0x10000D53C, symSize: 0x40 }
  - { offsetInCU: 0x5DDC, offset: 0x37EFA, size: 0x8, addend: 0x0, symName: __ZNSt3__119__allocate_at_leastB8ue170006INS_9allocatorI6BucketEEEENS_19__allocation_resultINS_16allocator_traitsIT_E7pointerEEERS6_m, symObjAddr: 0x1E64, symBinAddr: 0x10000D930, symSize: 0x40 }
  - { offsetInCU: 0x5E1F, offset: 0x37F3D, size: 0x8, addend: 0x0, symName: __ZNSt3__112__to_addressB8ue170006I6BucketEEPT_S3_, symObjAddr: 0x23BC, symBinAddr: 0x10000DC54, symSize: 0x14 }
  - { offsetInCU: 0x83ED, offset: 0x3A50B, size: 0x8, addend: 0x0, symName: __Z9partitionP4DiskP3MemNSt3__14pairIjjEES5_, symObjAddr: 0x0, symBinAddr: 0x10000C0D8, symSize: 0x5A4 }
  - { offsetInCU: 0x85E1, offset: 0x3A6FF, size: 0x8, addend: 0x0, symName: __ZNSt3__16vectorI6BucketNS_9allocatorIS1_EEEC1EmRKS1_, symObjAddr: 0x5A4, symBinAddr: 0x10000C67C, symSize: 0x3C }
  - { offsetInCU: 0x862A, offset: 0x3A748, size: 0x8, addend: 0x0, symName: __ZN6BucketD1Ev, symObjAddr: 0x5E0, symBinAddr: 0x10000C6B8, symSize: 0x2C }
  - { offsetInCU: 0x8654, offset: 0x3A772, size: 0x8, addend: 0x0, symName: __ZNSt3__16vectorI6BucketNS_9allocatorIS1_EEEixB8ue170006Em, symObjAddr: 0x60C, symBinAddr: 0x10000C6E4, symSize: 0x24 }
  - { offsetInCU: 0x868A, offset: 0x3A7A8, size: 0x8, addend: 0x0, symName: __ZNSt3__16vectorI6BucketNS_9allocatorIS1_EEED1B8ue170006Ev, symObjAddr: 0x65C, symBinAddr: 0x10000C708, symSize: 0x2C }
  - { offsetInCU: 0x86B2, offset: 0x3A7D0, size: 0x8, addend: 0x0, symName: __Z5probeP4DiskP3MemRNSt3__16vectorI6BucketNS3_9allocatorIS5_EEEE, symObjAddr: 0x688, symBinAddr: 0x10000C734, symSize: 0xB18 }
  - { offsetInCU: 0x8A7A, offset: 0x3AB98, size: 0x8, addend: 0x0, symName: __ZNSt3__16vectorIjNS_9allocatorIjEEE5beginB8ue170006Ev, symObjAddr: 0x11CC, symBinAddr: 0x10000D24C, symSize: 0x30 }
  - { offsetInCU: 0x8AA1, offset: 0x3ABBF, size: 0x8, addend: 0x0, symName: __ZNSt3__16vectorIjNS_9allocatorIjEEE3endB8ue170006Ev, symObjAddr: 0x11FC, symBinAddr: 0x10000D27C, symSize: 0x30 }
  - { offsetInCU: 0x8AC8, offset: 0x3ABE6, size: 0x8, addend: 0x0, symName: __ZNKSt3__111__wrap_iterIPjEdeB8ue170006Ev, symObjAddr: 0x1260, symBinAddr: 0x10000D2E0, symSize: 0x18 }
  - { offsetInCU: 0x8AED, offset: 0x3AC0B, size: 0x8, addend: 0x0, symName: __ZNSt3__111__wrap_iterIPjEppB8ue170006Ev, symObjAddr: 0x1278, symBinAddr: 0x10000D2F8, symSize: 0x20 }
  - { offsetInCU: 0x8B12, offset: 0x3AC30, size: 0x8, addend: 0x0, symName: __ZNSt3__16vectorIjNS_9allocatorIjEEED1B8ue170006Ev, symObjAddr: 0x1298, symBinAddr: 0x10000D318, symSize: 0x2C }
  - { offsetInCU: 0x8B3A, offset: 0x3AC58, size: 0x8, addend: 0x0, symName: __ZN6BucketD2Ev, symObjAddr: 0x1330, symBinAddr: 0x10000D344, symSize: 0x3C }
  - { offsetInCU: 0x8B64, offset: 0x3AC82, size: 0x8, addend: 0x0, symName: __ZNKSt3__111__wrap_iterIPjE4baseB8ue170006Ev, symObjAddr: 0x13EC, symBinAddr: 0x10000D3C8, symSize: 0x18 }
  - { offsetInCU: 0x8B89, offset: 0x3ACA7, size: 0x8, addend: 0x0, symName: __ZNSt3__16vectorIjNS_9allocatorIjEEED2B8ue170006Ev, symObjAddr: 0x1404, symBinAddr: 0x10000D3E0, symSize: 0x44 }
  - { offsetInCU: 0x8BB1, offset: 0x3ACCF, size: 0x8, addend: 0x0, symName: __ZNSt3__16vectorI6BucketNS_9allocatorIS1_EEEC2EmRKS1_, symObjAddr: 0x1958, symBinAddr: 0x10000D424, symSize: 0xDC }
  - { offsetInCU: 0x8C19, offset: 0x3AD37, size: 0x8, addend: 0x0, symName: __ZNSt3__117__compressed_pairIP6BucketNS_9allocatorIS1_EEEC1B8ue170006IDnNS_18__default_init_tagEEEOT_OT0_, symObjAddr: 0x1A34, symBinAddr: 0x10000D500, symSize: 0x3C }
  - { offsetInCU: 0x8C6F, offset: 0x3AD8D, size: 0x8, addend: 0x0, symName: __ZNSt3__16vectorI6BucketNS_9allocatorIS1_EEE16__destroy_vectorC1B8ue170006ERS4_, symObjAddr: 0x1AB0, symBinAddr: 0x10000D57C, symSize: 0x34 }
  - { offsetInCU: 0x8CA6, offset: 0x3ADC4, size: 0x8, addend: 0x0, symName: __ZNSt3__16vectorI6BucketNS_9allocatorIS1_EEE11__vallocateB8ue170006Em, symObjAddr: 0x1AE4, symBinAddr: 0x10000D5B0, symSize: 0xAC }
  - { offsetInCU: 0x8CE8, offset: 0x3AE06, size: 0x8, addend: 0x0, symName: __ZNSt3__16vectorI6BucketNS_9allocatorIS1_EEE18__construct_at_endEmRKS1_, symObjAddr: 0x1B90, symBinAddr: 0x10000D65C, symSize: 0xD0 }
  - { offsetInCU: 0x8D69, offset: 0x3AE87, size: 0x8, addend: 0x0, symName: __ZNSt3__128__exception_guard_exceptionsINS_6vectorI6BucketNS_9allocatorIS2_EEE16__destroy_vectorEE10__completeB8ue170006Ev, symObjAddr: 0x1C60, symBinAddr: 0x10000D72C, symSize: 0x1C }
  - { offsetInCU: 0x8D8E, offset: 0x3AEAC, size: 0x8, addend: 0x0, symName: __ZNSt3__128__exception_guard_exceptionsINS_6vectorI6BucketNS_9allocatorIS2_EEE16__destroy_vectorEED1B8ue170006Ev, symObjAddr: 0x1C7C, symBinAddr: 0x10000D748, symSize: 0x2C }
  - { offsetInCU: 0x8DB6, offset: 0x3AED4, size: 0x8, addend: 0x0, symName: __ZNSt3__117__compressed_pairIP6BucketNS_9allocatorIS1_EEEC2B8ue170006IDnNS_18__default_init_tagEEEOT_OT0_, symObjAddr: 0x1CA8, symBinAddr: 0x10000D774, symSize: 0x40 }
  - { offsetInCU: 0x8E0D, offset: 0x3AF2B, size: 0x8, addend: 0x0, symName: __ZNSt3__122__compressed_pair_elemIP6BucketLi0ELb0EEC2B8ue170006IDnvEEOT_, symObjAddr: 0x1CE8, symBinAddr: 0x10000D7B4, symSize: 0x1C }
  - { offsetInCU: 0x8E4E, offset: 0x3AF6C, size: 0x8, addend: 0x0, symName: __ZNSt3__122__compressed_pair_elemINS_9allocatorI6BucketEELi1ELb1EEC2B8ue170006ENS_18__default_init_tagE, symObjAddr: 0x1D04, symBinAddr: 0x10000D7D0, symSize: 0x2C }
  - { offsetInCU: 0x8E81, offset: 0x3AF9F, size: 0x8, addend: 0x0, symName: __ZNSt3__19allocatorI6BucketEC2B8ue170006Ev, symObjAddr: 0x1D30, symBinAddr: 0x10000D7FC, symSize: 0x2C }
  - { offsetInCU: 0x8EAA, offset: 0x3AFC8, size: 0x8, addend: 0x0, symName: __ZNSt3__116__non_trivial_ifILb1ENS_9allocatorI6BucketEEEC2B8ue170006Ev, symObjAddr: 0x1D5C, symBinAddr: 0x10000D828, symSize: 0x14 }
  - { offsetInCU: 0x8ED2, offset: 0x3AFF0, size: 0x8, addend: 0x0, symName: __ZNSt3__128__exception_guard_exceptionsINS_6vectorI6BucketNS_9allocatorIS2_EEE16__destroy_vectorEEC1B8ue170006ES6_, symObjAddr: 0x1D70, symBinAddr: 0x10000D83C, symSize: 0x34 }
  - { offsetInCU: 0x8F09, offset: 0x3B027, size: 0x8, addend: 0x0, symName: __ZNSt3__128__exception_guard_exceptionsINS_6vectorI6BucketNS_9allocatorIS2_EEE16__destroy_vectorEEC2B8ue170006ES6_, symObjAddr: 0x1DA4, symBinAddr: 0x10000D870, symSize: 0x24 }
  - { offsetInCU: 0x8F40, offset: 0x3B05E, size: 0x8, addend: 0x0, symName: __ZNSt3__16vectorI6BucketNS_9allocatorIS1_EEE16__destroy_vectorC2B8ue170006ERS4_, symObjAddr: 0x1DC8, symBinAddr: 0x10000D894, symSize: 0x20 }
  - { offsetInCU: 0x8F77, offset: 0x3B095, size: 0x8, addend: 0x0, symName: __ZNKSt3__16vectorI6BucketNS_9allocatorIS1_EEE8max_sizeEv, symObjAddr: 0x1DE8, symBinAddr: 0x10000D8B4, symSize: 0x60 }
  - { offsetInCU: 0x8F9E, offset: 0x3B0BC, size: 0x8, addend: 0x0, symName: __ZNKSt3__16vectorI6BucketNS_9allocatorIS1_EEE20__throw_length_errorB8ue170006Ev, symObjAddr: 0x1E48, symBinAddr: 0x10000D914, symSize: 0x1C }
  - { offsetInCU: 0x8FC2, offset: 0x3B0E0, size: 0x8, addend: 0x0, symName: __ZNSt3__16vectorI6BucketNS_9allocatorIS1_EEE7__allocB8ue170006Ev, symObjAddr: 0x1EA4, symBinAddr: 0x10000D970, symSize: 0x28 }
  - { offsetInCU: 0x8FE6, offset: 0x3B104, size: 0x8, addend: 0x0, symName: __ZNSt3__16vectorI6BucketNS_9allocatorIS1_EEE9__end_capB8ue170006Ev, symObjAddr: 0x1ECC, symBinAddr: 0x10000D998, symSize: 0x28 }
  - { offsetInCU: 0x900A, offset: 0x3B128, size: 0x8, addend: 0x0, symName: __ZNKSt3__16vectorI6BucketNS_9allocatorIS1_EEE14__annotate_newB8ue170006Em, symObjAddr: 0x1EF4, symBinAddr: 0x10000D9C0, symSize: 0xAC }
  - { offsetInCU: 0x9048, offset: 0x3B166, size: 0x8, addend: 0x0, symName: __ZNSt3__116allocator_traitsINS_9allocatorI6BucketEEE8max_sizeB8ue170006IS3_vEEmRKS3_, symObjAddr: 0x1FCC, symBinAddr: 0x10000DA6C, symSize: 0x24 }
  - { offsetInCU: 0x9076, offset: 0x3B194, size: 0x8, addend: 0x0, symName: __ZNKSt3__16vectorI6BucketNS_9allocatorIS1_EEE7__allocB8ue170006Ev, symObjAddr: 0x1FF0, symBinAddr: 0x10000DA90, symSize: 0x28 }
  - { offsetInCU: 0x909A, offset: 0x3B1B8, size: 0x8, addend: 0x0, symName: __ZNKSt3__19allocatorI6BucketE8max_sizeB8ue170006Ev, symObjAddr: 0x20B4, symBinAddr: 0x10000DAB8, symSize: 0x14 }
  - { offsetInCU: 0x90BF, offset: 0x3B1DD, size: 0x8, addend: 0x0, symName: __ZNKSt3__117__compressed_pairIP6BucketNS_9allocatorIS1_EEE6secondB8ue170006Ev, symObjAddr: 0x20C8, symBinAddr: 0x10000DACC, symSize: 0x24 }
  - { offsetInCU: 0x90E3, offset: 0x3B201, size: 0x8, addend: 0x0, symName: __ZNKSt3__122__compressed_pair_elemINS_9allocatorI6BucketEELi1ELb1EE5__getB8ue170006Ev, symObjAddr: 0x20EC, symBinAddr: 0x10000DAF0, symSize: 0x14 }
  - { offsetInCU: 0x9108, offset: 0x3B226, size: 0x8, addend: 0x0, symName: __ZNSt3__19allocatorI6BucketE8allocateB8ue170006Em, symObjAddr: 0x21EC, symBinAddr: 0x10000DB04, symSize: 0x58 }
  - { offsetInCU: 0x913A, offset: 0x3B258, size: 0x8, addend: 0x0, symName: __ZNSt3__117__compressed_pairIP6BucketNS_9allocatorIS1_EEE6secondB8ue170006Ev, symObjAddr: 0x22C4, symBinAddr: 0x10000DB5C, symSize: 0x24 }
  - { offsetInCU: 0x915E, offset: 0x3B27C, size: 0x8, addend: 0x0, symName: __ZNSt3__122__compressed_pair_elemINS_9allocatorI6BucketEELi1ELb1EE5__getB8ue170006Ev, symObjAddr: 0x22E8, symBinAddr: 0x10000DB80, symSize: 0x14 }
  - { offsetInCU: 0x9183, offset: 0x3B2A1, size: 0x8, addend: 0x0, symName: __ZNSt3__117__compressed_pairIP6BucketNS_9allocatorIS1_EEE5firstB8ue170006Ev, symObjAddr: 0x22FC, symBinAddr: 0x10000DB94, symSize: 0x24 }
  - { offsetInCU: 0x91A7, offset: 0x3B2C5, size: 0x8, addend: 0x0, symName: __ZNSt3__122__compressed_pair_elemIP6BucketLi0ELb0EE5__getB8ue170006Ev, symObjAddr: 0x2320, symBinAddr: 0x10000DBB8, symSize: 0x14 }
  - { offsetInCU: 0x91CC, offset: 0x3B2EA, size: 0x8, addend: 0x0, symName: __ZNKSt3__16vectorI6BucketNS_9allocatorIS1_EEE31__annotate_contiguous_containerB8ue170006EPKvS6_S6_S6_, symObjAddr: 0x2334, symBinAddr: 0x10000DBCC, symSize: 0x20 }
  - { offsetInCU: 0x9221, offset: 0x3B33F, size: 0x8, addend: 0x0, symName: __ZNKSt3__16vectorI6BucketNS_9allocatorIS1_EEE4dataB8ue170006Ev, symObjAddr: 0x2354, symBinAddr: 0x10000DBEC, symSize: 0x28 }
  - { offsetInCU: 0x9245, offset: 0x3B363, size: 0x8, addend: 0x0, symName: __ZNKSt3__16vectorI6BucketNS_9allocatorIS1_EEE8capacityB8ue170006Ev, symObjAddr: 0x237C, symBinAddr: 0x10000DC14, symSize: 0x40 }
  - { offsetInCU: 0x9269, offset: 0x3B387, size: 0x8, addend: 0x0, symName: __ZNKSt3__16vectorI6BucketNS_9allocatorIS1_EEE9__end_capB8ue170006Ev, symObjAddr: 0x23D0, symBinAddr: 0x10000DC68, symSize: 0x28 }
  - { offsetInCU: 0x928D, offset: 0x3B3AB, size: 0x8, addend: 0x0, symName: __ZNKSt3__117__compressed_pairIP6BucketNS_9allocatorIS1_EEE5firstB8ue170006Ev, symObjAddr: 0x23F8, symBinAddr: 0x10000DC90, symSize: 0x24 }
  - { offsetInCU: 0x92B1, offset: 0x3B3CF, size: 0x8, addend: 0x0, symName: __ZNKSt3__122__compressed_pair_elemIP6BucketLi0ELb0EE5__getB8ue170006Ev, symObjAddr: 0x241C, symBinAddr: 0x10000DCB4, symSize: 0x14 }
  - { offsetInCU: 0x92EF, offset: 0x3B40D, size: 0x8, addend: 0x0, symName: __ZNSt3__16vectorI6BucketNS_9allocatorIS1_EEE21_ConstructTransactionC1B8ue170006ERS4_m, symObjAddr: 0x2430, symBinAddr: 0x10000DCC8, symSize: 0x3C }
  - { offsetInCU: 0x9336, offset: 0x3B454, size: 0x8, addend: 0x0, symName: __ZNSt3__116allocator_traitsINS_9allocatorI6BucketEEE9constructB8ue170006IS2_JRKS2_EvEEvRS3_PT_DpOT0_, symObjAddr: 0x246C, symBinAddr: 0x10000DD04, symSize: 0x34 }
  - { offsetInCU: 0x938D, offset: 0x3B4AB, size: 0x8, addend: 0x0, symName: __ZNSt3__16vectorI6BucketNS_9allocatorIS1_EEE21_ConstructTransactionD1B8ue170006Ev, symObjAddr: 0x24A0, symBinAddr: 0x10000DD38, symSize: 0x2C }
  - { offsetInCU: 0x93B6, offset: 0x3B4D4, size: 0x8, addend: 0x0, symName: __ZNSt3__16vectorI6BucketNS_9allocatorIS1_EEE21_ConstructTransactionC2B8ue170006ERS4_m, symObjAddr: 0x24CC, symBinAddr: 0x10000DD64, symSize: 0x44 }
  - { offsetInCU: 0x93FC, offset: 0x3B51A, size: 0x8, addend: 0x0, symName: __ZNSt3__19allocatorI6BucketE9constructB8ue170006IS1_JRKS1_EEEvPT_DpOT0_, symObjAddr: 0x2510, symBinAddr: 0x10000DDA8, symSize: 0x30 }
  - { offsetInCU: 0x9450, offset: 0x3B56E, size: 0x8, addend: 0x0, symName: __ZN6BucketC1ERKS_, symObjAddr: 0x2540, symBinAddr: 0x10000DDD8, symSize: 0x34 }
  - { offsetInCU: 0x9483, offset: 0x3B5A1, size: 0x8, addend: 0x0, symName: __ZN6BucketC2ERKS_, symObjAddr: 0x2574, symBinAddr: 0x10000DE0C, symSize: 0x94 }
  - { offsetInCU: 0x94D0, offset: 0x3B5EE, size: 0x8, addend: 0x0, symName: __ZNSt3__16vectorI6BucketNS_9allocatorIS1_EEE21_ConstructTransactionD2B8ue170006Ev, symObjAddr: 0x3440, symBinAddr: 0x10000DEA0, symSize: 0x20 }
  - { offsetInCU: 0x94F8, offset: 0x3B616, size: 0x8, addend: 0x0, symName: __ZNSt3__128__exception_guard_exceptionsINS_6vectorI6BucketNS_9allocatorIS2_EEE16__destroy_vectorEED2B8ue170006Ev, symObjAddr: 0x3460, symBinAddr: 0x10000DEC0, symSize: 0x50 }
  - { offsetInCU: 0x9520, offset: 0x3B63E, size: 0x8, addend: 0x0, symName: __ZNSt3__16vectorI6BucketNS_9allocatorIS1_EEE16__destroy_vectorclB8ue170006Ev, symObjAddr: 0x34B0, symBinAddr: 0x10000DF10, symSize: 0x90 }
  - { offsetInCU: 0x9544, offset: 0x3B662, size: 0x8, addend: 0x0, symName: __ZNSt3__16vectorI6BucketNS_9allocatorIS1_EEE7__clearB8ue170006Ev, symObjAddr: 0x3540, symBinAddr: 0x10000DFA0, symSize: 0x28 }
  - { offsetInCU: 0x9568, offset: 0x3B686, size: 0x8, addend: 0x0, symName: __ZNKSt3__16vectorI6BucketNS_9allocatorIS1_EEE17__annotate_deleteB8ue170006Ev, symObjAddr: 0x3568, symBinAddr: 0x10000DFC8, symSize: 0xB8 }
  - { offsetInCU: 0x958D, offset: 0x3B6AB, size: 0x8, addend: 0x0, symName: __ZNSt3__116allocator_traitsINS_9allocatorI6BucketEEE10deallocateB8ue170006ERS3_PS2_m, symObjAddr: 0x3620, symBinAddr: 0x10000E080, symSize: 0x34 }
  - { offsetInCU: 0x95CE, offset: 0x3B6EC, size: 0x8, addend: 0x0, symName: __ZNSt3__16vectorI6BucketNS_9allocatorIS1_EEE22__base_destruct_at_endB8ue170006EPS1_, symObjAddr: 0x3654, symBinAddr: 0x10000E0B4, symSize: 0x8C }
  - { offsetInCU: 0x9611, offset: 0x3B72F, size: 0x8, addend: 0x0, symName: __ZNSt3__116allocator_traitsINS_9allocatorI6BucketEEE7destroyB8ue170006IS2_vEEvRS3_PT_, symObjAddr: 0x36E0, symBinAddr: 0x10000E140, symSize: 0x2C }
  - { offsetInCU: 0x964E, offset: 0x3B76C, size: 0x8, addend: 0x0, symName: __ZNSt3__19allocatorI6BucketE7destroyB8ue170006EPS1_, symObjAddr: 0x370C, symBinAddr: 0x10000E16C, symSize: 0x28 }
  - { offsetInCU: 0x9680, offset: 0x3B79E, size: 0x8, addend: 0x0, symName: __ZNKSt3__16vectorI6BucketNS_9allocatorIS1_EEE4sizeB8ue170006Ev, symObjAddr: 0x3734, symBinAddr: 0x10000E194, symSize: 0x28 }
  - { offsetInCU: 0x96A5, offset: 0x3B7C3, size: 0x8, addend: 0x0, symName: __ZNSt3__19allocatorI6BucketE10deallocateB8ue170006EPS1_m, symObjAddr: 0x375C, symBinAddr: 0x10000E1BC, symSize: 0x40 }
  - { offsetInCU: 0x96E5, offset: 0x3B803, size: 0x8, addend: 0x0, symName: __ZNSt3__16vectorI6BucketNS_9allocatorIS1_EEED2B8ue170006Ev, symObjAddr: 0x379C, symBinAddr: 0x10000E1FC, symSize: 0x40 }
  - { offsetInCU: 0x970D, offset: 0x3B82B, size: 0x8, addend: 0x0, symName: __ZNSt3__16vectorIjNS_9allocatorIjEEE11__make_iterB8ue170006EPj, symObjAddr: 0x3910, symBinAddr: 0x10000E23C, symSize: 0x30 }
  - { offsetInCU: 0x9740, offset: 0x3B85E, size: 0x8, addend: 0x0, symName: __ZNSt3__111__wrap_iterIPjEC1B8ue170006ES1_, symObjAddr: 0x3940, symBinAddr: 0x10000E26C, symSize: 0x34 }
  - { offsetInCU: 0x9777, offset: 0x3B895, size: 0x8, addend: 0x0, symName: __ZNSt3__111__wrap_iterIPjEC2B8ue170006ES1_, symObjAddr: 0x3974, symBinAddr: 0x10000E2A0, symSize: 0x20 }
  - { offsetInCU: 0x7A1B, offset: 0x4343B, size: 0x8, addend: 0x0, symName: __Z5printRNSt3__16vectorIjNS_9allocatorIjEEEEP4Disk, symObjAddr: 0x0, symBinAddr: 0x10000E2C0, symSize: 0x130 }
  - { offsetInCU: 0x7A8C, offset: 0x434AC, size: 0x8, addend: 0x0, symName: __ZNSt3__16vectorIjNS_9allocatorIjEEEixB8ue170006Em, symObjAddr: 0x224, symBinAddr: 0x10000E3F0, symSize: 0x24 }
  - { offsetInCU: 0x7AC2, offset: 0x434E2, size: 0x8, addend: 0x0, symName: _main, symObjAddr: 0x248, symBinAddr: 0x10000E414, symSize: 0x1BC }
...
